	.cpu cortex-m7
	.eabi_attribute 20, 1
	.eabi_attribute 21, 1
	.eabi_attribute 23, 3
	.eabi_attribute 24, 1
	.eabi_attribute 25, 1
	.eabi_attribute 26, 1
	.eabi_attribute 30, 6
	.eabi_attribute 34, 1
	.eabi_attribute 18, 4
	.file	"drv_exti_st_type_A.cpp"
	.text
.Ltext0:
	.section	.text._ZL8setIntEnb,"ax",%progbits
	.align	1
	.syntax unified
	.thumb
	.thumb_func
	.fpu softvfp
	.type	_ZL8setIntEnb, %function
_ZL8setIntEnb:
.LFB144:
	.file 1 "/home/mymy49/library/yss/yss/drv/exti/drv_exti_st_type_A.cpp"
	.loc 1 42 1
	@ args = 0, pretend = 0, frame = 8
	@ frame_needed = 0, uses_anonymous_args = 0
	push	{lr}
.LCFI0:
	sub	sp, sp, #12
.LCFI1:
	mov	r3, r0
	strb	r3, [sp, #7]
	.loc 1 43 16
	ldrb	r3, [sp, #7]	@ zero_extendqisi2
	mov	r1, r3
	ldr	r0, .L2
	bl	_ZN3drv4Nvic9setExtiEnEb
	.loc 1 44 1
	nop
	add	sp, sp, #12
.LCFI2:
	@ sp needed
	ldr	pc, [sp], #4
.L3:
	.align	2
.L2:
	.word	nvic
.LFE144:
	.size	_ZL8setIntEnb, .-_ZL8setIntEnb
	.global	exti
	.section	.bss.exti,"aw",%nobits
	.align	2
	.type	exti, %object
	.size	exti, 20
exti:
	.space	20
	.section	.bss._ZN3drvL4gIsrE,"aw",%nobits
	.align	2
	.type	_ZN3drvL4gIsrE, %object
	.size	_ZN3drvL4gIsrE, 64
_ZN3drvL4gIsrE:
	.space	64
	.section	.bss._ZN3drvL12gOneshotFlagE,"aw",%nobits
	.align	2
	.type	_ZN3drvL12gOneshotFlagE, %object
	.size	_ZN3drvL12gOneshotFlagE, 16
_ZN3drvL12gOneshotFlagE:
	.space	16
	.section	.bss._ZN3drvL11gTriggerNumE,"aw",%nobits
	.align	2
	.type	_ZN3drvL11gTriggerNumE, %object
	.size	_ZN3drvL11gTriggerNumE, 64
_ZN3drvL11gTriggerNumE:
	.space	64
	.global	_ZN3drv10triggerIsrE
	.section	.data._ZN3drv10triggerIsrE,"aw"
	.align	2
	.type	_ZN3drv10triggerIsrE, %object
	.size	_ZN3drv10triggerIsrE, 64
_ZN3drv10triggerIsrE:
	.word	_ZN3drvL8trigger0Ev
	.word	_ZN3drvL8trigger1Ev
	.word	_ZN3drvL8trigger2Ev
	.word	_ZN3drvL8trigger3Ev
	.word	_ZN3drvL8trigger4Ev
	.word	_ZN3drvL8trigger5Ev
	.word	_ZN3drvL8trigger6Ev
	.word	_ZN3drvL8trigger7Ev
	.word	_ZN3drvL8trigger8Ev
	.word	_ZN3drvL8trigger9Ev
	.word	_ZN3drvL9trigger10Ev
	.word	_ZN3drvL9trigger11Ev
	.word	_ZN3drvL9trigger12Ev
	.word	_ZN3drvL9trigger13Ev
	.word	_ZN3drvL9trigger14Ev
	.word	_ZN3drvL9trigger15Ev
	.section	.text._ZN3drv4ExtiC2EPFvbES2_,"ax",%progbits
	.align	1
	.global	_ZN3drv4ExtiC2EPFvbES2_
	.syntax unified
	.thumb
	.thumb_func
	.fpu softvfp
	.type	_ZN3drv4ExtiC2EPFvbES2_, %function
_ZN3drv4ExtiC2EPFvbES2_:
.LFB146:
	.loc 1 92 2
	@ args = 0, pretend = 0, frame = 16
	@ frame_needed = 0, uses_anonymous_args = 0
	push	{lr}
.LCFI3:
	sub	sp, sp, #20
.LCFI4:
	str	r0, [sp, #12]
	str	r1, [sp, #8]
	str	r2, [sp, #4]
.LBB2:
	.loc 1 92 94
	ldr	r0, [sp, #12]
	movs	r3, #0
	ldr	r2, [sp, #4]
	ldr	r1, [sp, #8]
	bl	_ZN3DrvC2EPFvbES1_PFvvE
.LBE2:
	.loc 1 95 2
	ldr	r3, [sp, #12]
	mov	r0, r3
	add	sp, sp, #20
.LCFI5:
	@ sp needed
	ldr	pc, [sp], #4
.LFE146:
	.size	_ZN3drv4ExtiC2EPFvbES2_, .-_ZN3drv4ExtiC2EPFvbES2_
	.global	_ZN3drv4ExtiC1EPFvbES2_
	.thumb_set _ZN3drv4ExtiC1EPFvbES2_,_ZN3drv4ExtiC2EPFvbES2_
	.section	.text._ZN3drv4Exti3addERNS_4GpioEhhPFvvE,"ax",%progbits
	.align	1
	.global	_ZN3drv4Exti3addERNS_4GpioEhhPFvvE
	.syntax unified
	.thumb
	.thumb_func
	.fpu softvfp
	.type	_ZN3drv4Exti3addERNS_4GpioEhhPFvvE, %function
_ZN3drv4Exti3addERNS_4GpioEhhPFvvE:
.LFB148:
	.loc 1 98 2
	@ args = 4, pretend = 0, frame = 16
	@ frame_needed = 0, uses_anonymous_args = 0
	push	{lr}
.LCFI6:
	sub	sp, sp, #20
.LCFI7:
	str	r0, [sp, #12]
	str	r1, [sp, #8]
	mov	r1, r2
	mov	r2, r3
	mov	r3, r1
	strb	r3, [sp, #7]
	mov	r3, r2
	strb	r3, [sp, #6]
	.loc 1 99 3
	ldrb	r3, [sp, #7]	@ zero_extendqisi2
	cmp	r3, #15
	bls	.L7
	.loc 1 100 11
	movs	r3, #0
	b	.L8
.L7:
	.loc 1 102 16
	ldrb	r3, [sp, #7]	@ zero_extendqisi2
	.loc 1 102 21
	ldr	r2, .L13
	movs	r1, #0
	strb	r1, [r2, r3]
	.loc 1 103 8
	ldrb	r3, [sp, #7]	@ zero_extendqisi2
	.loc 1 103 13
	ldr	r1, .L13+4
	ldr	r2, [sp, #24]
	str	r2, [r1, r3, lsl #2]
	.loc 1 104 15
	ldrb	r3, [sp, #7]	@ zero_extendqisi2
	mov	r1, r3
	ldr	r0, [sp, #8]
	bl	_ZN3drv4Gpio7setExtiEh
	.loc 1 106 33
	ldrb	r3, [sp, #6]	@ zero_extendqisi2
	and	r3, r3, #1
	.loc 1 106 3
	cmp	r3, #0
	beq	.L9
	.loc 1 107 4 discriminator 1
	ldr	r3, .L13+8
	ldr	r3, [r3, #8]
	ldrb	r2, [sp, #7]	@ zero_extendqisi2
	movs	r1, #1
	lsl	r2, r1, r2
	mov	r1, r2
	ldr	r2, .L13+8
	orrs	r3, r3, r1
	str	r3, [r2, #8]
	b	.L10
.L9:
	.loc 1 109 4 discriminator 2
	ldr	r3, .L13+8
	ldr	r3, [r3, #8]
	ldrb	r2, [sp, #7]	@ zero_extendqisi2
	movs	r1, #1
	lsl	r2, r1, r2
	mvns	r2, r2
	mov	r1, r2
	ldr	r2, .L13+8
	ands	r3, r3, r1
	str	r3, [r2, #8]
.L10:
	.loc 1 111 34
	ldrb	r3, [sp, #6]	@ zero_extendqisi2
	and	r3, r3, #2
	.loc 1 111 3
	cmp	r3, #0
	beq	.L11
	.loc 1 112 4 discriminator 1
	ldr	r3, .L13+8
	ldr	r3, [r3, #12]
	ldrb	r2, [sp, #7]	@ zero_extendqisi2
	movs	r1, #1
	lsl	r2, r1, r2
	mov	r1, r2
	ldr	r2, .L13+8
	orrs	r3, r3, r1
	str	r3, [r2, #12]
	b	.L12
.L11:
	.loc 1 114 4 discriminator 2
	ldr	r3, .L13+8
	ldr	r3, [r3, #12]
	ldrb	r2, [sp, #7]	@ zero_extendqisi2
	movs	r1, #1
	lsl	r2, r1, r2
	mvns	r2, r2
	mov	r1, r2
	ldr	r2, .L13+8
	ands	r3, r3, r1
	str	r3, [r2, #12]
.L12:
	.loc 1 116 3 discriminator 1
	ldr	r3, .L13+8
	ldr	r3, [r3]
	ldrb	r2, [sp, #7]	@ zero_extendqisi2
	movs	r1, #1
	lsl	r2, r1, r2
	mov	r1, r2
	ldr	r2, .L13+8
	orrs	r3, r3, r1
	str	r3, [r2]
	.loc 1 118 10 discriminator 1
	movs	r3, #1
.L8:
	.loc 1 119 2
	mov	r0, r3
	add	sp, sp, #20
.LCFI8:
	@ sp needed
	ldr	pc, [sp], #4
.L14:
	.align	2
.L13:
	.word	_ZN3drvL12gOneshotFlagE
	.word	_ZN3drvL4gIsrE
	.word	1073822720
.LFE148:
	.size	_ZN3drv4Exti3addERNS_4GpioEhhPFvvE, .-_ZN3drv4Exti3addERNS_4GpioEhhPFvvE
	.section	.text._ZN3drv4Exti3addERNS_4GpioEhhl,"ax",%progbits
	.align	1
	.global	_ZN3drv4Exti3addERNS_4GpioEhhl
	.syntax unified
	.thumb
	.thumb_func
	.fpu softvfp
	.type	_ZN3drv4Exti3addERNS_4GpioEhhl, %function
_ZN3drv4Exti3addERNS_4GpioEhhl:
.LFB149:
	.loc 1 122 2
	@ args = 4, pretend = 0, frame = 16
	@ frame_needed = 0, uses_anonymous_args = 0
	push	{lr}
.LCFI9:
	sub	sp, sp, #20
.LCFI10:
	str	r0, [sp, #12]
	str	r1, [sp, #8]
	mov	r1, r2
	mov	r2, r3
	mov	r3, r1
	strb	r3, [sp, #7]
	mov	r3, r2
	strb	r3, [sp, #6]
	.loc 1 123 3
	ldrb	r3, [sp, #7]	@ zero_extendqisi2
	cmp	r3, #15
	bls	.L16
	.loc 1 124 11
	movs	r3, #0
	b	.L17
.L16:
	.loc 1 126 16
	ldrb	r3, [sp, #7]	@ zero_extendqisi2
	.loc 1 126 21
	ldr	r2, .L22
	movs	r1, #0
	strb	r1, [r2, r3]
	.loc 1 127 41
	ldrb	r2, [sp, #7]	@ zero_extendqisi2
	.loc 1 127 8
	ldrb	r3, [sp, #7]	@ zero_extendqisi2
	.loc 1 127 44
	ldr	r1, .L22+4
	ldr	r2, [r1, r2, lsl #2]
	.loc 1 127 13
	ldr	r1, .L22+8
	str	r2, [r1, r3, lsl #2]
	.loc 1 128 15
	ldrb	r3, [sp, #7]	@ zero_extendqisi2
	.loc 1 128 22
	ldr	r2, [sp, #24]
	.loc 1 128 20
	ldr	r1, .L22+12
	str	r2, [r1, r3, lsl #2]
	.loc 1 129 15
	ldrb	r3, [sp, #7]	@ zero_extendqisi2
	mov	r1, r3
	ldr	r0, [sp, #8]
	bl	_ZN3drv4Gpio7setExtiEh
	.loc 1 130 3
	ldrb	r3, [sp, #6]	@ zero_extendqisi2
	cmp	r3, #0
	beq	.L18
	.loc 1 130 3 is_stmt 0 discriminator 1
	ldr	r3, .L22+16
	ldr	r3, [r3, #8]
	ldrb	r2, [sp, #7]	@ zero_extendqisi2
	movs	r1, #1
	lsl	r2, r1, r2
	mov	r1, r2
	ldr	r2, .L22+16
	orrs	r3, r3, r1
	str	r3, [r2, #8]
	b	.L19
.L18:
	.loc 1 130 3 discriminator 2
	ldr	r3, .L22+16
	ldr	r3, [r3, #8]
	ldrb	r2, [sp, #7]	@ zero_extendqisi2
	movs	r1, #1
	lsl	r2, r1, r2
	mvns	r2, r2
	mov	r1, r2
	ldr	r2, .L22+16
	ands	r3, r3, r1
	str	r3, [r2, #8]
.L19:
	.loc 1 131 3 is_stmt 1
	ldrb	r3, [sp, #6]	@ zero_extendqisi2
	cmp	r3, #0
	beq	.L20
	.loc 1 131 3 is_stmt 0 discriminator 1
	ldr	r3, .L22+16
	ldr	r3, [r3, #12]
	ldrb	r2, [sp, #7]	@ zero_extendqisi2
	movs	r1, #1
	lsl	r2, r1, r2
	mov	r1, r2
	ldr	r2, .L22+16
	orrs	r3, r3, r1
	str	r3, [r2, #12]
	b	.L21
.L20:
	.loc 1 131 3 discriminator 2
	ldr	r3, .L22+16
	ldr	r3, [r3, #12]
	ldrb	r2, [sp, #7]	@ zero_extendqisi2
	movs	r1, #1
	lsl	r2, r1, r2
	mvns	r2, r2
	mov	r1, r2
	ldr	r2, .L22+16
	ands	r3, r3, r1
	str	r3, [r2, #12]
.L21:
	.loc 1 132 3 is_stmt 1 discriminator 1
	ldr	r3, .L22+16
	ldr	r3, [r3]
	ldrb	r2, [sp, #7]	@ zero_extendqisi2
	movs	r1, #1
	lsl	r2, r1, r2
	mov	r1, r2
	ldr	r2, .L22+16
	orrs	r3, r3, r1
	str	r3, [r2]
	.loc 1 134 10 discriminator 1
	movs	r3, #1
.L17:
	.loc 1 135 2
	mov	r0, r3
	add	sp, sp, #20
.LCFI11:
	@ sp needed
	ldr	pc, [sp], #4
.L23:
	.align	2
.L22:
	.word	_ZN3drvL12gOneshotFlagE
	.word	_ZN3drv10triggerIsrE
	.word	_ZN3drvL4gIsrE
	.word	_ZN3drvL11gTriggerNumE
	.word	1073822720
.LFE149:
	.size	_ZN3drv4Exti3addERNS_4GpioEhhl, .-_ZN3drv4Exti3addERNS_4GpioEhhl
	.section	.text._ZN3drvL8trigger0Ev,"ax",%progbits
	.align	1
	.syntax unified
	.thumb
	.thumb_func
	.fpu softvfp
	.type	_ZN3drvL8trigger0Ev, %function
_ZN3drvL8trigger0Ev:
.LFB150:
	.loc 1 138 2
	@ args = 0, pretend = 0, frame = 0
	@ frame_needed = 0, uses_anonymous_args = 0
	push	{r3, lr}
.LCFI12:
	.loc 1 139 29
	ldr	r3, .L25
	ldr	r3, [r3]
	.loc 1 139 15
	mov	r0, r3
	bl	_ZN7trigger3runEi
	.loc 1 140 2
	nop
	pop	{r3, pc}
.L26:
	.align	2
.L25:
	.word	_ZN3drvL11gTriggerNumE
.LFE150:
	.size	_ZN3drvL8trigger0Ev, .-_ZN3drvL8trigger0Ev
	.section	.text._ZN3drvL8trigger1Ev,"ax",%progbits
	.align	1
	.syntax unified
	.thumb
	.thumb_func
	.fpu softvfp
	.type	_ZN3drvL8trigger1Ev, %function
_ZN3drvL8trigger1Ev:
.LFB151:
	.loc 1 143 2
	@ args = 0, pretend = 0, frame = 0
	@ frame_needed = 0, uses_anonymous_args = 0
	push	{r3, lr}
.LCFI13:
	.loc 1 144 29
	ldr	r3, .L28
	ldr	r3, [r3, #4]
	.loc 1 144 15
	mov	r0, r3
	bl	_ZN7trigger3runEi
	.loc 1 145 2
	nop
	pop	{r3, pc}
.L29:
	.align	2
.L28:
	.word	_ZN3drvL11gTriggerNumE
.LFE151:
	.size	_ZN3drvL8trigger1Ev, .-_ZN3drvL8trigger1Ev
	.section	.text._ZN3drvL8trigger2Ev,"ax",%progbits
	.align	1
	.syntax unified
	.thumb
	.thumb_func
	.fpu softvfp
	.type	_ZN3drvL8trigger2Ev, %function
_ZN3drvL8trigger2Ev:
.LFB152:
	.loc 1 148 2
	@ args = 0, pretend = 0, frame = 0
	@ frame_needed = 0, uses_anonymous_args = 0
	push	{r3, lr}
.LCFI14:
	.loc 1 149 29
	ldr	r3, .L31
	ldr	r3, [r3, #8]
	.loc 1 149 15
	mov	r0, r3
	bl	_ZN7trigger3runEi
	.loc 1 150 2
	nop
	pop	{r3, pc}
.L32:
	.align	2
.L31:
	.word	_ZN3drvL11gTriggerNumE
.LFE152:
	.size	_ZN3drvL8trigger2Ev, .-_ZN3drvL8trigger2Ev
	.section	.text._ZN3drvL8trigger3Ev,"ax",%progbits
	.align	1
	.syntax unified
	.thumb
	.thumb_func
	.fpu softvfp
	.type	_ZN3drvL8trigger3Ev, %function
_ZN3drvL8trigger3Ev:
.LFB153:
	.loc 1 153 2
	@ args = 0, pretend = 0, frame = 0
	@ frame_needed = 0, uses_anonymous_args = 0
	push	{r3, lr}
.LCFI15:
	.loc 1 154 29
	ldr	r3, .L34
	ldr	r3, [r3, #12]
	.loc 1 154 15
	mov	r0, r3
	bl	_ZN7trigger3runEi
	.loc 1 155 2
	nop
	pop	{r3, pc}
.L35:
	.align	2
.L34:
	.word	_ZN3drvL11gTriggerNumE
.LFE153:
	.size	_ZN3drvL8trigger3Ev, .-_ZN3drvL8trigger3Ev
	.section	.text._ZN3drvL8trigger4Ev,"ax",%progbits
	.align	1
	.syntax unified
	.thumb
	.thumb_func
	.fpu softvfp
	.type	_ZN3drvL8trigger4Ev, %function
_ZN3drvL8trigger4Ev:
.LFB154:
	.loc 1 158 2
	@ args = 0, pretend = 0, frame = 0
	@ frame_needed = 0, uses_anonymous_args = 0
	push	{r3, lr}
.LCFI16:
	.loc 1 159 29
	ldr	r3, .L37
	ldr	r3, [r3, #16]
	.loc 1 159 15
	mov	r0, r3
	bl	_ZN7trigger3runEi
	.loc 1 160 2
	nop
	pop	{r3, pc}
.L38:
	.align	2
.L37:
	.word	_ZN3drvL11gTriggerNumE
.LFE154:
	.size	_ZN3drvL8trigger4Ev, .-_ZN3drvL8trigger4Ev
	.section	.text._ZN3drvL8trigger5Ev,"ax",%progbits
	.align	1
	.syntax unified
	.thumb
	.thumb_func
	.fpu softvfp
	.type	_ZN3drvL8trigger5Ev, %function
_ZN3drvL8trigger5Ev:
.LFB155:
	.loc 1 163 2
	@ args = 0, pretend = 0, frame = 0
	@ frame_needed = 0, uses_anonymous_args = 0
	push	{r3, lr}
.LCFI17:
	.loc 1 164 29
	ldr	r3, .L40
	ldr	r3, [r3, #20]
	.loc 1 164 15
	mov	r0, r3
	bl	_ZN7trigger3runEi
	.loc 1 165 2
	nop
	pop	{r3, pc}
.L41:
	.align	2
.L40:
	.word	_ZN3drvL11gTriggerNumE
.LFE155:
	.size	_ZN3drvL8trigger5Ev, .-_ZN3drvL8trigger5Ev
	.section	.text._ZN3drvL8trigger6Ev,"ax",%progbits
	.align	1
	.syntax unified
	.thumb
	.thumb_func
	.fpu softvfp
	.type	_ZN3drvL8trigger6Ev, %function
_ZN3drvL8trigger6Ev:
.LFB156:
	.loc 1 168 2
	@ args = 0, pretend = 0, frame = 0
	@ frame_needed = 0, uses_anonymous_args = 0
	push	{r3, lr}
.LCFI18:
	.loc 1 169 29
	ldr	r3, .L43
	ldr	r3, [r3, #24]
	.loc 1 169 15
	mov	r0, r3
	bl	_ZN7trigger3runEi
	.loc 1 170 2
	nop
	pop	{r3, pc}
.L44:
	.align	2
.L43:
	.word	_ZN3drvL11gTriggerNumE
.LFE156:
	.size	_ZN3drvL8trigger6Ev, .-_ZN3drvL8trigger6Ev
	.section	.text._ZN3drvL8trigger7Ev,"ax",%progbits
	.align	1
	.syntax unified
	.thumb
	.thumb_func
	.fpu softvfp
	.type	_ZN3drvL8trigger7Ev, %function
_ZN3drvL8trigger7Ev:
.LFB157:
	.loc 1 173 2
	@ args = 0, pretend = 0, frame = 0
	@ frame_needed = 0, uses_anonymous_args = 0
	push	{r3, lr}
.LCFI19:
	.loc 1 174 29
	ldr	r3, .L46
	ldr	r3, [r3, #28]
	.loc 1 174 15
	mov	r0, r3
	bl	_ZN7trigger3runEi
	.loc 1 175 2
	nop
	pop	{r3, pc}
.L47:
	.align	2
.L46:
	.word	_ZN3drvL11gTriggerNumE
.LFE157:
	.size	_ZN3drvL8trigger7Ev, .-_ZN3drvL8trigger7Ev
	.section	.text._ZN3drvL8trigger8Ev,"ax",%progbits
	.align	1
	.syntax unified
	.thumb
	.thumb_func
	.fpu softvfp
	.type	_ZN3drvL8trigger8Ev, %function
_ZN3drvL8trigger8Ev:
.LFB158:
	.loc 1 178 2
	@ args = 0, pretend = 0, frame = 0
	@ frame_needed = 0, uses_anonymous_args = 0
	push	{r3, lr}
.LCFI20:
	.loc 1 179 29
	ldr	r3, .L49
	ldr	r3, [r3, #32]
	.loc 1 179 15
	mov	r0, r3
	bl	_ZN7trigger3runEi
	.loc 1 180 2
	nop
	pop	{r3, pc}
.L50:
	.align	2
.L49:
	.word	_ZN3drvL11gTriggerNumE
.LFE158:
	.size	_ZN3drvL8trigger8Ev, .-_ZN3drvL8trigger8Ev
	.section	.text._ZN3drvL8trigger9Ev,"ax",%progbits
	.align	1
	.syntax unified
	.thumb
	.thumb_func
	.fpu softvfp
	.type	_ZN3drvL8trigger9Ev, %function
_ZN3drvL8trigger9Ev:
.LFB159:
	.loc 1 183 2
	@ args = 0, pretend = 0, frame = 0
	@ frame_needed = 0, uses_anonymous_args = 0
	push	{r3, lr}
.LCFI21:
	.loc 1 184 29
	ldr	r3, .L52
	ldr	r3, [r3, #36]
	.loc 1 184 15
	mov	r0, r3
	bl	_ZN7trigger3runEi
	.loc 1 185 2
	nop
	pop	{r3, pc}
.L53:
	.align	2
.L52:
	.word	_ZN3drvL11gTriggerNumE
.LFE159:
	.size	_ZN3drvL8trigger9Ev, .-_ZN3drvL8trigger9Ev
	.section	.text._ZN3drvL9trigger10Ev,"ax",%progbits
	.align	1
	.syntax unified
	.thumb
	.thumb_func
	.fpu softvfp
	.type	_ZN3drvL9trigger10Ev, %function
_ZN3drvL9trigger10Ev:
.LFB160:
	.loc 1 188 2
	@ args = 0, pretend = 0, frame = 0
	@ frame_needed = 0, uses_anonymous_args = 0
	push	{r3, lr}
.LCFI22:
	.loc 1 189 30
	ldr	r3, .L55
	ldr	r3, [r3, #40]
	.loc 1 189 15
	mov	r0, r3
	bl	_ZN7trigger3runEi
	.loc 1 190 2
	nop
	pop	{r3, pc}
.L56:
	.align	2
.L55:
	.word	_ZN3drvL11gTriggerNumE
.LFE160:
	.size	_ZN3drvL9trigger10Ev, .-_ZN3drvL9trigger10Ev
	.section	.text._ZN3drvL9trigger11Ev,"ax",%progbits
	.align	1
	.syntax unified
	.thumb
	.thumb_func
	.fpu softvfp
	.type	_ZN3drvL9trigger11Ev, %function
_ZN3drvL9trigger11Ev:
.LFB161:
	.loc 1 193 2
	@ args = 0, pretend = 0, frame = 0
	@ frame_needed = 0, uses_anonymous_args = 0
	push	{r3, lr}
.LCFI23:
	.loc 1 194 30
	ldr	r3, .L58
	ldr	r3, [r3, #44]
	.loc 1 194 15
	mov	r0, r3
	bl	_ZN7trigger3runEi
	.loc 1 195 2
	nop
	pop	{r3, pc}
.L59:
	.align	2
.L58:
	.word	_ZN3drvL11gTriggerNumE
.LFE161:
	.size	_ZN3drvL9trigger11Ev, .-_ZN3drvL9trigger11Ev
	.section	.text._ZN3drvL9trigger12Ev,"ax",%progbits
	.align	1
	.syntax unified
	.thumb
	.thumb_func
	.fpu softvfp
	.type	_ZN3drvL9trigger12Ev, %function
_ZN3drvL9trigger12Ev:
.LFB162:
	.loc 1 198 2
	@ args = 0, pretend = 0, frame = 0
	@ frame_needed = 0, uses_anonymous_args = 0
	push	{r3, lr}
.LCFI24:
	.loc 1 199 30
	ldr	r3, .L61
	ldr	r3, [r3, #48]
	.loc 1 199 15
	mov	r0, r3
	bl	_ZN7trigger3runEi
	.loc 1 200 2
	nop
	pop	{r3, pc}
.L62:
	.align	2
.L61:
	.word	_ZN3drvL11gTriggerNumE
.LFE162:
	.size	_ZN3drvL9trigger12Ev, .-_ZN3drvL9trigger12Ev
	.section	.text._ZN3drvL9trigger13Ev,"ax",%progbits
	.align	1
	.syntax unified
	.thumb
	.thumb_func
	.fpu softvfp
	.type	_ZN3drvL9trigger13Ev, %function
_ZN3drvL9trigger13Ev:
.LFB163:
	.loc 1 203 2
	@ args = 0, pretend = 0, frame = 0
	@ frame_needed = 0, uses_anonymous_args = 0
	push	{r3, lr}
.LCFI25:
	.loc 1 204 30
	ldr	r3, .L64
	ldr	r3, [r3, #52]
	.loc 1 204 15
	mov	r0, r3
	bl	_ZN7trigger3runEi
	.loc 1 205 2
	nop
	pop	{r3, pc}
.L65:
	.align	2
.L64:
	.word	_ZN3drvL11gTriggerNumE
.LFE163:
	.size	_ZN3drvL9trigger13Ev, .-_ZN3drvL9trigger13Ev
	.section	.text._ZN3drvL9trigger14Ev,"ax",%progbits
	.align	1
	.syntax unified
	.thumb
	.thumb_func
	.fpu softvfp
	.type	_ZN3drvL9trigger14Ev, %function
_ZN3drvL9trigger14Ev:
.LFB164:
	.loc 1 208 2
	@ args = 0, pretend = 0, frame = 0
	@ frame_needed = 0, uses_anonymous_args = 0
	push	{r3, lr}
.LCFI26:
	.loc 1 209 30
	ldr	r3, .L67
	ldr	r3, [r3, #56]
	.loc 1 209 15
	mov	r0, r3
	bl	_ZN7trigger3runEi
	.loc 1 210 2
	nop
	pop	{r3, pc}
.L68:
	.align	2
.L67:
	.word	_ZN3drvL11gTriggerNumE
.LFE164:
	.size	_ZN3drvL9trigger14Ev, .-_ZN3drvL9trigger14Ev
	.section	.text._ZN3drvL9trigger15Ev,"ax",%progbits
	.align	1
	.syntax unified
	.thumb
	.thumb_func
	.fpu softvfp
	.type	_ZN3drvL9trigger15Ev, %function
_ZN3drvL9trigger15Ev:
.LFB165:
	.loc 1 213 2
	@ args = 0, pretend = 0, frame = 0
	@ frame_needed = 0, uses_anonymous_args = 0
	push	{r3, lr}
.LCFI27:
	.loc 1 214 30
	ldr	r3, .L70
	ldr	r3, [r3, #60]
	.loc 1 214 15
	mov	r0, r3
	bl	_ZN7trigger3runEi
	.loc 1 215 2
	nop
	pop	{r3, pc}
.L71:
	.align	2
.L70:
	.word	_ZN3drvL11gTriggerNumE
.LFE165:
	.size	_ZN3drvL9trigger15Ev, .-_ZN3drvL9trigger15Ev
	.section	.text.EXTI0_IRQHandler,"ax",%progbits
	.align	1
	.global	EXTI0_IRQHandler
	.syntax unified
	.thumb
	.thumb_func
	.fpu softvfp
	.type	EXTI0_IRQHandler, %function
EXTI0_IRQHandler:
.LFB166:
	.loc 1 220 2
	@ args = 0, pretend = 0, frame = 0
	@ frame_needed = 0, uses_anonymous_args = 0
	push	{r3, lr}
.LCFI28:
	.loc 1 221 3
	ldr	r3, .L75
	ldr	r3, [r3, #20]
	ldr	r2, .L75
	orr	r3, r3, #1
	str	r3, [r2, #20]
	.loc 1 223 12
	ldr	r3, .L75+4
	ldr	r3, [r3]
	.loc 1 223 3
	cmp	r3, #0
	beq	.L74
	.loc 1 225 10
	ldr	r3, .L75+4
	ldr	r3, [r3]
	.loc 1 225 11
	blx	r3
.LVL0:
	.loc 1 226 21
	ldr	r3, .L75+8
	ldrb	r3, [r3]	@ zero_extendqisi2
	.loc 1 226 4
	cmp	r3, #0
	beq	.L74
	.loc 1 228 5 discriminator 2
	ldr	r3, .L75
	ldr	r3, [r3]
	ldr	r2, .L75
	bic	r3, r3, #1
	str	r3, [r2]
	.loc 1 229 21 discriminator 2
	ldr	r3, .L75+8
	movs	r2, #0
	strb	r2, [r3]
.L74:
	.loc 1 232 2
	nop
	pop	{r3, pc}
.L76:
	.align	2
.L75:
	.word	1073822720
	.word	_ZN3drvL4gIsrE
	.word	_ZN3drvL12gOneshotFlagE
.LFE166:
	.size	EXTI0_IRQHandler, .-EXTI0_IRQHandler
	.section	.text.EXTI1_IRQHandler,"ax",%progbits
	.align	1
	.global	EXTI1_IRQHandler
	.syntax unified
	.thumb
	.thumb_func
	.fpu softvfp
	.type	EXTI1_IRQHandler, %function
EXTI1_IRQHandler:
.LFB167:
	.loc 1 235 2
	@ args = 0, pretend = 0, frame = 0
	@ frame_needed = 0, uses_anonymous_args = 0
	push	{r3, lr}
.LCFI29:
	.loc 1 236 3
	ldr	r3, .L80
	ldr	r3, [r3, #20]
	ldr	r2, .L80
	orr	r3, r3, #2
	str	r3, [r2, #20]
	.loc 1 238 12
	ldr	r3, .L80+4
	ldr	r3, [r3, #4]
	.loc 1 238 3
	cmp	r3, #0
	beq	.L79
	.loc 1 240 10
	ldr	r3, .L80+4
	ldr	r3, [r3, #4]
	.loc 1 240 11
	blx	r3
.LVL1:
	.loc 1 241 21
	ldr	r3, .L80+8
	ldrb	r3, [r3, #1]	@ zero_extendqisi2
	.loc 1 241 4
	cmp	r3, #0
	beq	.L79
	.loc 1 243 5 discriminator 2
	ldr	r3, .L80
	ldr	r3, [r3]
	ldr	r2, .L80
	bic	r3, r3, #2
	str	r3, [r2]
	.loc 1 244 21 discriminator 2
	ldr	r3, .L80+8
	movs	r2, #0
	strb	r2, [r3, #1]
.L79:
	.loc 1 247 2
	nop
	pop	{r3, pc}
.L81:
	.align	2
.L80:
	.word	1073822720
	.word	_ZN3drvL4gIsrE
	.word	_ZN3drvL12gOneshotFlagE
.LFE167:
	.size	EXTI1_IRQHandler, .-EXTI1_IRQHandler
	.section	.text.EXTI2_IRQHandler,"ax",%progbits
	.align	1
	.global	EXTI2_IRQHandler
	.syntax unified
	.thumb
	.thumb_func
	.fpu softvfp
	.type	EXTI2_IRQHandler, %function
EXTI2_IRQHandler:
.LFB168:
	.loc 1 250 2
	@ args = 0, pretend = 0, frame = 0
	@ frame_needed = 0, uses_anonymous_args = 0
	push	{r3, lr}
.LCFI30:
	.loc 1 251 3
	ldr	r3, .L85
	ldr	r3, [r3, #20]
	ldr	r2, .L85
	orr	r3, r3, #4
	str	r3, [r2, #20]
	.loc 1 253 12
	ldr	r3, .L85+4
	ldr	r3, [r3, #8]
	.loc 1 253 3
	cmp	r3, #0
	beq	.L84
	.loc 1 255 10
	ldr	r3, .L85+4
	ldr	r3, [r3, #8]
	.loc 1 255 11
	blx	r3
.LVL2:
	.loc 1 256 21
	ldr	r3, .L85+8
	ldrb	r3, [r3, #2]	@ zero_extendqisi2
	.loc 1 256 4
	cmp	r3, #0
	beq	.L84
	.loc 1 258 5 discriminator 2
	ldr	r3, .L85
	ldr	r3, [r3]
	ldr	r2, .L85
	bic	r3, r3, #4
	str	r3, [r2]
	.loc 1 259 21 discriminator 2
	ldr	r3, .L85+8
	movs	r2, #0
	strb	r2, [r3, #2]
.L84:
	.loc 1 262 2
	nop
	pop	{r3, pc}
.L86:
	.align	2
.L85:
	.word	1073822720
	.word	_ZN3drvL4gIsrE
	.word	_ZN3drvL12gOneshotFlagE
.LFE168:
	.size	EXTI2_IRQHandler, .-EXTI2_IRQHandler
	.section	.text.EXTI3_IRQHandler,"ax",%progbits
	.align	1
	.global	EXTI3_IRQHandler
	.syntax unified
	.thumb
	.thumb_func
	.fpu softvfp
	.type	EXTI3_IRQHandler, %function
EXTI3_IRQHandler:
.LFB169:
	.loc 1 265 2
	@ args = 0, pretend = 0, frame = 0
	@ frame_needed = 0, uses_anonymous_args = 0
	push	{r3, lr}
.LCFI31:
	.loc 1 266 3
	ldr	r3, .L90
	ldr	r3, [r3, #20]
	ldr	r2, .L90
	orr	r3, r3, #8
	str	r3, [r2, #20]
	.loc 1 268 12
	ldr	r3, .L90+4
	ldr	r3, [r3, #12]
	.loc 1 268 3
	cmp	r3, #0
	beq	.L89
	.loc 1 270 10
	ldr	r3, .L90+4
	ldr	r3, [r3, #12]
	.loc 1 270 11
	blx	r3
.LVL3:
	.loc 1 271 21
	ldr	r3, .L90+8
	ldrb	r3, [r3, #3]	@ zero_extendqisi2
	.loc 1 271 4
	cmp	r3, #0
	beq	.L89
	.loc 1 273 5 discriminator 2
	ldr	r3, .L90
	ldr	r3, [r3]
	ldr	r2, .L90
	bic	r3, r3, #8
	str	r3, [r2]
	.loc 1 274 21 discriminator 2
	ldr	r3, .L90+8
	movs	r2, #0
	strb	r2, [r3, #3]
.L89:
	.loc 1 277 2
	nop
	pop	{r3, pc}
.L91:
	.align	2
.L90:
	.word	1073822720
	.word	_ZN3drvL4gIsrE
	.word	_ZN3drvL12gOneshotFlagE
.LFE169:
	.size	EXTI3_IRQHandler, .-EXTI3_IRQHandler
	.section	.text.EXTI4_IRQHandler,"ax",%progbits
	.align	1
	.global	EXTI4_IRQHandler
	.syntax unified
	.thumb
	.thumb_func
	.fpu softvfp
	.type	EXTI4_IRQHandler, %function
EXTI4_IRQHandler:
.LFB170:
	.loc 1 280 2
	@ args = 0, pretend = 0, frame = 0
	@ frame_needed = 0, uses_anonymous_args = 0
	push	{r3, lr}
.LCFI32:
	.loc 1 281 3
	ldr	r3, .L95
	ldr	r3, [r3, #20]
	ldr	r2, .L95
	orr	r3, r3, #16
	str	r3, [r2, #20]
	.loc 1 283 12
	ldr	r3, .L95+4
	ldr	r3, [r3, #16]
	.loc 1 283 3
	cmp	r3, #0
	beq	.L94
	.loc 1 285 10
	ldr	r3, .L95+4
	ldr	r3, [r3, #16]
	.loc 1 285 11
	blx	r3
.LVL4:
	.loc 1 286 21
	ldr	r3, .L95+8
	ldrb	r3, [r3, #4]	@ zero_extendqisi2
	.loc 1 286 4
	cmp	r3, #0
	beq	.L94
	.loc 1 288 5 discriminator 2
	ldr	r3, .L95
	ldr	r3, [r3]
	ldr	r2, .L95
	bic	r3, r3, #16
	str	r3, [r2]
	.loc 1 289 21 discriminator 2
	ldr	r3, .L95+8
	movs	r2, #0
	strb	r2, [r3, #4]
.L94:
	.loc 1 292 2
	nop
	pop	{r3, pc}
.L96:
	.align	2
.L95:
	.word	1073822720
	.word	_ZN3drvL4gIsrE
	.word	_ZN3drvL12gOneshotFlagE
.LFE170:
	.size	EXTI4_IRQHandler, .-EXTI4_IRQHandler
	.section	.text.EXTI9_5_IRQHandler,"ax",%progbits
	.align	1
	.global	EXTI9_5_IRQHandler
	.syntax unified
	.thumb
	.thumb_func
	.fpu softvfp
	.type	EXTI9_5_IRQHandler, %function
EXTI9_5_IRQHandler:
.LFB171:
	.loc 1 295 2
	@ args = 0, pretend = 0, frame = 8
	@ frame_needed = 0, uses_anonymous_args = 0
	push	{lr}
.LCFI33:
	sub	sp, sp, #12
.LCFI34:
	.loc 1 296 29
	ldr	r3, .L104
	ldr	r3, [r3, #20]
	strh	r3, [sp, #6]	@ movhi
	.loc 1 298 9
	ldrh	r3, [sp, #6]
	and	r3, r3, #32
	.loc 1 298 3
	cmp	r3, #0
	beq	.L98
	.loc 1 300 4 discriminator 1
	ldr	r3, .L104
	ldr	r3, [r3, #20]
	ldr	r2, .L104
	orr	r3, r3, #32
	str	r3, [r2, #20]
	.loc 1 302 13 discriminator 1
	ldr	r3, .L104+4
	ldr	r3, [r3, #20]
	.loc 1 302 4 discriminator 1
	cmp	r3, #0
	beq	.L98
	.loc 1 304 11
	ldr	r3, .L104+4
	ldr	r3, [r3, #20]
	.loc 1 304 12
	blx	r3
.LVL5:
	.loc 1 305 22
	ldr	r3, .L104+8
	ldrb	r3, [r3, #5]	@ zero_extendqisi2
	.loc 1 305 5
	cmp	r3, #0
	beq	.L98
	.loc 1 307 6 discriminator 2
	ldr	r3, .L104
	ldr	r3, [r3]
	ldr	r2, .L104
	bic	r3, r3, #32
	str	r3, [r2]
	.loc 1 308 22 discriminator 2
	ldr	r3, .L104+8
	movs	r2, #0
	strb	r2, [r3, #5]
.L98:
	.loc 1 313 9
	ldrh	r3, [sp, #6]
	and	r3, r3, #64
	.loc 1 313 3
	cmp	r3, #0
	beq	.L99
	.loc 1 315 4 discriminator 1
	ldr	r3, .L104
	ldr	r3, [r3, #20]
	ldr	r2, .L104
	orr	r3, r3, #64
	str	r3, [r2, #20]
	.loc 1 317 13 discriminator 1
	ldr	r3, .L104+4
	ldr	r3, [r3, #24]
	.loc 1 317 4 discriminator 1
	cmp	r3, #0
	beq	.L99
	.loc 1 319 11
	ldr	r3, .L104+4
	ldr	r3, [r3, #24]
	.loc 1 319 12
	blx	r3
.LVL6:
	.loc 1 320 22
	ldr	r3, .L104+8
	ldrb	r3, [r3, #6]	@ zero_extendqisi2
	.loc 1 320 5
	cmp	r3, #0
	beq	.L99
	.loc 1 322 6 discriminator 2
	ldr	r3, .L104
	ldr	r3, [r3]
	ldr	r2, .L104
	bic	r3, r3, #64
	str	r3, [r2]
	.loc 1 323 22 discriminator 2
	ldr	r3, .L104+8
	movs	r2, #0
	strb	r2, [r3, #6]
.L99:
	.loc 1 328 9
	ldrh	r3, [sp, #6]
	and	r3, r3, #128
	.loc 1 328 3
	cmp	r3, #0
	beq	.L100
	.loc 1 330 4 discriminator 1
	ldr	r3, .L104
	ldr	r3, [r3, #20]
	ldr	r2, .L104
	orr	r3, r3, #128
	str	r3, [r2, #20]
	.loc 1 332 13 discriminator 1
	ldr	r3, .L104+4
	ldr	r3, [r3, #28]
	.loc 1 332 4 discriminator 1
	cmp	r3, #0
	beq	.L100
	.loc 1 334 11
	ldr	r3, .L104+4
	ldr	r3, [r3, #28]
	.loc 1 334 12
	blx	r3
.LVL7:
	.loc 1 335 22
	ldr	r3, .L104+8
	ldrb	r3, [r3, #7]	@ zero_extendqisi2
	.loc 1 335 5
	cmp	r3, #0
	beq	.L100
	.loc 1 337 6 discriminator 2
	ldr	r3, .L104
	ldr	r3, [r3]
	ldr	r2, .L104
	bic	r3, r3, #128
	str	r3, [r2]
	.loc 1 338 22 discriminator 2
	ldr	r3, .L104+8
	movs	r2, #0
	strb	r2, [r3, #7]
.L100:
	.loc 1 343 9
	ldrh	r3, [sp, #6]
	and	r3, r3, #256
	.loc 1 343 3
	cmp	r3, #0
	beq	.L101
	.loc 1 345 4 discriminator 1
	ldr	r3, .L104
	ldr	r3, [r3, #20]
	ldr	r2, .L104
	orr	r3, r3, #256
	str	r3, [r2, #20]
	.loc 1 347 13 discriminator 1
	ldr	r3, .L104+4
	ldr	r3, [r3, #32]
	.loc 1 347 4 discriminator 1
	cmp	r3, #0
	beq	.L101
	.loc 1 349 11
	ldr	r3, .L104+4
	ldr	r3, [r3, #32]
	.loc 1 349 12
	blx	r3
.LVL8:
	.loc 1 350 22
	ldr	r3, .L104+8
	ldrb	r3, [r3, #8]	@ zero_extendqisi2
	.loc 1 350 5
	cmp	r3, #0
	beq	.L101
	.loc 1 352 6 discriminator 2
	ldr	r3, .L104
	ldr	r3, [r3]
	ldr	r2, .L104
	bic	r3, r3, #256
	str	r3, [r2]
	.loc 1 353 22 discriminator 2
	ldr	r3, .L104+8
	movs	r2, #0
	strb	r2, [r3, #8]
.L101:
	.loc 1 358 9
	ldrh	r3, [sp, #6]
	and	r3, r3, #512
	.loc 1 358 3
	cmp	r3, #0
	beq	.L103
	.loc 1 360 4 discriminator 1
	ldr	r3, .L104
	ldr	r3, [r3, #20]
	ldr	r2, .L104
	orr	r3, r3, #512
	str	r3, [r2, #20]
	.loc 1 362 13 discriminator 1
	ldr	r3, .L104+4
	ldr	r3, [r3, #36]
	.loc 1 362 4 discriminator 1
	cmp	r3, #0
	beq	.L103
	.loc 1 364 11
	ldr	r3, .L104+4
	ldr	r3, [r3, #36]
	.loc 1 364 12
	blx	r3
.LVL9:
	.loc 1 365 22
	ldr	r3, .L104+8
	ldrb	r3, [r3, #9]	@ zero_extendqisi2
	.loc 1 365 5
	cmp	r3, #0
	beq	.L103
	.loc 1 367 6 discriminator 2
	ldr	r3, .L104
	ldr	r3, [r3]
	ldr	r2, .L104
	bic	r3, r3, #512
	str	r3, [r2]
	.loc 1 368 22 discriminator 2
	ldr	r3, .L104+8
	movs	r2, #0
	strb	r2, [r3, #9]
.L103:
	.loc 1 372 2
	nop
	add	sp, sp, #12
.LCFI35:
	@ sp needed
	ldr	pc, [sp], #4
.L105:
	.align	2
.L104:
	.word	1073822720
	.word	_ZN3drvL4gIsrE
	.word	_ZN3drvL12gOneshotFlagE
.LFE171:
	.size	EXTI9_5_IRQHandler, .-EXTI9_5_IRQHandler
	.section	.text.EXTI15_10_IRQHandler,"ax",%progbits
	.align	1
	.global	EXTI15_10_IRQHandler
	.syntax unified
	.thumb
	.thumb_func
	.fpu softvfp
	.type	EXTI15_10_IRQHandler, %function
EXTI15_10_IRQHandler:
.LFB172:
	.loc 1 375 2
	@ args = 0, pretend = 0, frame = 8
	@ frame_needed = 0, uses_anonymous_args = 0
	push	{lr}
.LCFI36:
	sub	sp, sp, #12
.LCFI37:
	.loc 1 376 29
	ldr	r3, .L114
	ldr	r3, [r3, #20]
	strh	r3, [sp, #6]	@ movhi
	.loc 1 378 9
	ldrh	r3, [sp, #6]
	and	r3, r3, #1024
	.loc 1 378 3
	cmp	r3, #0
	beq	.L107
	.loc 1 380 4 discriminator 1
	ldr	r3, .L114
	ldr	r3, [r3, #20]
	ldr	r2, .L114
	orr	r3, r3, #1024
	str	r3, [r2, #20]
	.loc 1 382 14 discriminator 1
	ldr	r3, .L114+4
	ldr	r3, [r3, #40]
	.loc 1 382 4 discriminator 1
	cmp	r3, #0
	beq	.L107
	.loc 1 384 12
	ldr	r3, .L114+4
	ldr	r3, [r3, #40]
	.loc 1 384 13
	blx	r3
.LVL10:
	.loc 1 385 23
	ldr	r3, .L114+8
	ldrb	r3, [r3, #10]	@ zero_extendqisi2
	.loc 1 385 5
	cmp	r3, #0
	beq	.L107
	.loc 1 387 6 discriminator 2
	ldr	r3, .L114
	ldr	r3, [r3]
	ldr	r2, .L114
	bic	r3, r3, #1024
	str	r3, [r2]
	.loc 1 388 23 discriminator 2
	ldr	r3, .L114+8
	movs	r2, #0
	strb	r2, [r3, #10]
.L107:
	.loc 1 393 9
	ldrh	r3, [sp, #6]
	and	r3, r3, #2048
	.loc 1 393 3
	cmp	r3, #0
	beq	.L108
	.loc 1 395 4 discriminator 1
	ldr	r3, .L114
	ldr	r3, [r3, #20]
	ldr	r2, .L114
	orr	r3, r3, #2048
	str	r3, [r2, #20]
	.loc 1 397 14 discriminator 1
	ldr	r3, .L114+4
	ldr	r3, [r3, #44]
	.loc 1 397 4 discriminator 1
	cmp	r3, #0
	beq	.L108
	.loc 1 399 12
	ldr	r3, .L114+4
	ldr	r3, [r3, #44]
	.loc 1 399 13
	blx	r3
.LVL11:
	.loc 1 400 23
	ldr	r3, .L114+8
	ldrb	r3, [r3, #11]	@ zero_extendqisi2
	.loc 1 400 5
	cmp	r3, #0
	beq	.L108
	.loc 1 402 6 discriminator 2
	ldr	r3, .L114
	ldr	r3, [r3]
	ldr	r2, .L114
	bic	r3, r3, #2048
	str	r3, [r2]
	.loc 1 403 23 discriminator 2
	ldr	r3, .L114+8
	movs	r2, #0
	strb	r2, [r3, #11]
.L108:
	.loc 1 408 9
	ldrh	r3, [sp, #6]
	and	r3, r3, #4096
	.loc 1 408 3
	cmp	r3, #0
	beq	.L109
	.loc 1 410 4 discriminator 1
	ldr	r3, .L114
	ldr	r3, [r3, #20]
	ldr	r2, .L114
	orr	r3, r3, #4096
	str	r3, [r2, #20]
	.loc 1 412 14 discriminator 1
	ldr	r3, .L114+4
	ldr	r3, [r3, #48]
	.loc 1 412 4 discriminator 1
	cmp	r3, #0
	beq	.L109
	.loc 1 414 12
	ldr	r3, .L114+4
	ldr	r3, [r3, #48]
	.loc 1 414 13
	blx	r3
.LVL12:
	.loc 1 415 23
	ldr	r3, .L114+8
	ldrb	r3, [r3, #12]	@ zero_extendqisi2
	.loc 1 415 5
	cmp	r3, #0
	beq	.L109
	.loc 1 417 6 discriminator 2
	ldr	r3, .L114
	ldr	r3, [r3]
	ldr	r2, .L114
	bic	r3, r3, #4096
	str	r3, [r2]
	.loc 1 418 23 discriminator 2
	ldr	r3, .L114+8
	movs	r2, #0
	strb	r2, [r3, #12]
.L109:
	.loc 1 423 9
	ldrh	r3, [sp, #6]
	and	r3, r3, #8192
	.loc 1 423 3
	cmp	r3, #0
	beq	.L110
	.loc 1 425 4 discriminator 1
	ldr	r3, .L114
	ldr	r3, [r3, #20]
	ldr	r2, .L114
	orr	r3, r3, #8192
	str	r3, [r2, #20]
	.loc 1 427 14 discriminator 1
	ldr	r3, .L114+4
	ldr	r3, [r3, #52]
	.loc 1 427 4 discriminator 1
	cmp	r3, #0
	beq	.L110
	.loc 1 429 12
	ldr	r3, .L114+4
	ldr	r3, [r3, #52]
	.loc 1 429 13
	blx	r3
.LVL13:
	.loc 1 430 23
	ldr	r3, .L114+8
	ldrb	r3, [r3, #13]	@ zero_extendqisi2
	.loc 1 430 5
	cmp	r3, #0
	beq	.L110
	.loc 1 432 6 discriminator 2
	ldr	r3, .L114
	ldr	r3, [r3]
	ldr	r2, .L114
	bic	r3, r3, #8192
	str	r3, [r2]
	.loc 1 433 23 discriminator 2
	ldr	r3, .L114+8
	movs	r2, #0
	strb	r2, [r3, #13]
.L110:
	.loc 1 438 9
	ldrh	r3, [sp, #6]
	and	r3, r3, #16384
	.loc 1 438 3
	cmp	r3, #0
	beq	.L111
	.loc 1 440 4 discriminator 1
	ldr	r3, .L114
	ldr	r3, [r3, #20]
	ldr	r2, .L114
	orr	r3, r3, #16384
	str	r3, [r2, #20]
	.loc 1 442 14 discriminator 1
	ldr	r3, .L114+4
	ldr	r3, [r3, #56]
	.loc 1 442 4 discriminator 1
	cmp	r3, #0
	beq	.L111
	.loc 1 444 12
	ldr	r3, .L114+4
	ldr	r3, [r3, #56]
	.loc 1 444 13
	blx	r3
.LVL14:
	.loc 1 445 23
	ldr	r3, .L114+8
	ldrb	r3, [r3, #14]	@ zero_extendqisi2
	.loc 1 445 5
	cmp	r3, #0
	beq	.L111
	.loc 1 447 6 discriminator 2
	ldr	r3, .L114
	ldr	r3, [r3]
	ldr	r2, .L114
	bic	r3, r3, #16384
	str	r3, [r2]
	.loc 1 448 23 discriminator 2
	ldr	r3, .L114+8
	movs	r2, #0
	strb	r2, [r3, #14]
.L111:
	.loc 1 453 17
	ldrsh	r3, [sp, #6]
	.loc 1 453 3
	cmp	r3, #0
	bge	.L113
	.loc 1 455 4 discriminator 1
	ldr	r3, .L114
	ldr	r3, [r3, #20]
	ldr	r2, .L114
	orr	r3, r3, #32768
	str	r3, [r2, #20]
	.loc 1 457 14 discriminator 1
	ldr	r3, .L114+4
	ldr	r3, [r3, #60]
	.loc 1 457 4 discriminator 1
	cmp	r3, #0
	beq	.L113
	.loc 1 459 12
	ldr	r3, .L114+4
	ldr	r3, [r3, #60]
	.loc 1 459 13
	blx	r3
.LVL15:
	.loc 1 460 23
	ldr	r3, .L114+8
	ldrb	r3, [r3, #15]	@ zero_extendqisi2
	.loc 1 460 5
	cmp	r3, #0
	beq	.L113
	.loc 1 462 6 discriminator 2
	ldr	r3, .L114
	ldr	r3, [r3]
	ldr	r2, .L114
	bic	r3, r3, #32768
	str	r3, [r2]
	.loc 1 463 23 discriminator 2
	ldr	r3, .L114+8
	movs	r2, #0
	strb	r2, [r3, #15]
.L113:
	.loc 1 467 2
	nop
	add	sp, sp, #12
.LCFI38:
	@ sp needed
	ldr	pc, [sp], #4
.L115:
	.align	2
.L114:
	.word	1073822720
	.word	_ZN3drvL4gIsrE
	.word	_ZN3drvL12gOneshotFlagE
.LFE172:
	.size	EXTI15_10_IRQHandler, .-EXTI15_10_IRQHandler
	.section	.text._Z41__static_initialization_and_destruction_0ii,"ax",%progbits
	.align	1
	.syntax unified
	.thumb
	.thumb_func
	.fpu softvfp
	.type	_Z41__static_initialization_and_destruction_0ii, %function
_Z41__static_initialization_and_destruction_0ii:
.LFB173:
	.loc 1 469 1
	@ args = 0, pretend = 0, frame = 8
	@ frame_needed = 0, uses_anonymous_args = 0
	push	{lr}
.LCFI39:
	sub	sp, sp, #12
.LCFI40:
	str	r0, [sp, #4]
	str	r1, [sp]
	.loc 1 469 1
	ldr	r3, [sp, #4]
	cmp	r3, #1
	bne	.L118
	.loc 1 469 1 is_stmt 0 discriminator 1
	ldr	r3, [sp]
	movw	r2, #65535
	cmp	r3, r2
	bne	.L118
	.loc 1 46 27 is_stmt 1
	ldr	r2, .L119
	movs	r1, #0
	ldr	r0, .L119+4
	bl	_ZN3drv4ExtiC1EPFvbES2_
.L118:
	.loc 1 469 1
	nop
	add	sp, sp, #12
.LCFI41:
	@ sp needed
	ldr	pc, [sp], #4
.L120:
	.align	2
.L119:
	.word	_ZL8setIntEnb
	.word	exti
.LFE173:
	.size	_Z41__static_initialization_and_destruction_0ii, .-_Z41__static_initialization_and_destruction_0ii
	.section	.text._GLOBAL__sub_I_exti,"ax",%progbits
	.align	1
	.syntax unified
	.thumb
	.thumb_func
	.fpu softvfp
	.type	_GLOBAL__sub_I_exti, %function
_GLOBAL__sub_I_exti:
.LFB174:
	.loc 1 469 1
	@ args = 0, pretend = 0, frame = 0
	@ frame_needed = 0, uses_anonymous_args = 0
	push	{r3, lr}
.LCFI42:
	.loc 1 469 1
	movw	r1, #65535
	movs	r0, #1
	bl	_Z41__static_initialization_and_destruction_0ii
	pop	{r3, pc}
.LFE174:
	.size	_GLOBAL__sub_I_exti, .-_GLOBAL__sub_I_exti
	.section	.init_array,"aw",%init_array
	.align	2
	.word	_GLOBAL__sub_I_exti(target1)
	.section	.debug_frame,"",%progbits
.Lframe0:
	.4byte	.LECIE0-.LSCIE0
.LSCIE0:
	.4byte	0xffffffff
	.byte	0x3
	.ascii	"\000"
	.uleb128 0x1
	.sleb128 -4
	.uleb128 0xe
	.byte	0xc
	.uleb128 0xd
	.uleb128 0
	.align	2
.LECIE0:
.LSFDE0:
	.4byte	.LEFDE0-.LASFDE0
.LASFDE0:
	.4byte	.Lframe0
	.4byte	.LFB144
	.4byte	.LFE144-.LFB144
	.byte	0x4
	.4byte	.LCFI0-.LFB144
	.byte	0xe
	.uleb128 0x4
	.byte	0x8e
	.uleb128 0x1
	.byte	0x4
	.4byte	.LCFI1-.LCFI0
	.byte	0xe
	.uleb128 0x10
	.byte	0x4
	.4byte	.LCFI2-.LCFI1
	.byte	0xe
	.uleb128 0x4
	.align	2
.LEFDE0:
.LSFDE2:
	.4byte	.LEFDE2-.LASFDE2
.LASFDE2:
	.4byte	.Lframe0
	.4byte	.LFB146
	.4byte	.LFE146-.LFB146
	.byte	0x4
	.4byte	.LCFI3-.LFB146
	.byte	0xe
	.uleb128 0x4
	.byte	0x8e
	.uleb128 0x1
	.byte	0x4
	.4byte	.LCFI4-.LCFI3
	.byte	0xe
	.uleb128 0x18
	.byte	0x4
	.4byte	.LCFI5-.LCFI4
	.byte	0xe
	.uleb128 0x4
	.align	2
.LEFDE2:
.LSFDE4:
	.4byte	.LEFDE4-.LASFDE4
.LASFDE4:
	.4byte	.Lframe0
	.4byte	.LFB148
	.4byte	.LFE148-.LFB148
	.byte	0x4
	.4byte	.LCFI6-.LFB148
	.byte	0xe
	.uleb128 0x4
	.byte	0x8e
	.uleb128 0x1
	.byte	0x4
	.4byte	.LCFI7-.LCFI6
	.byte	0xe
	.uleb128 0x18
	.byte	0x4
	.4byte	.LCFI8-.LCFI7
	.byte	0xe
	.uleb128 0x4
	.align	2
.LEFDE4:
.LSFDE6:
	.4byte	.LEFDE6-.LASFDE6
.LASFDE6:
	.4byte	.Lframe0
	.4byte	.LFB149
	.4byte	.LFE149-.LFB149
	.byte	0x4
	.4byte	.LCFI9-.LFB149
	.byte	0xe
	.uleb128 0x4
	.byte	0x8e
	.uleb128 0x1
	.byte	0x4
	.4byte	.LCFI10-.LCFI9
	.byte	0xe
	.uleb128 0x18
	.byte	0x4
	.4byte	.LCFI11-.LCFI10
	.byte	0xe
	.uleb128 0x4
	.align	2
.LEFDE6:
.LSFDE8:
	.4byte	.LEFDE8-.LASFDE8
.LASFDE8:
	.4byte	.Lframe0
	.4byte	.LFB150
	.4byte	.LFE150-.LFB150
	.byte	0x4
	.4byte	.LCFI12-.LFB150
	.byte	0xe
	.uleb128 0x8
	.byte	0x83
	.uleb128 0x2
	.byte	0x8e
	.uleb128 0x1
	.align	2
.LEFDE8:
.LSFDE10:
	.4byte	.LEFDE10-.LASFDE10
.LASFDE10:
	.4byte	.Lframe0
	.4byte	.LFB151
	.4byte	.LFE151-.LFB151
	.byte	0x4
	.4byte	.LCFI13-.LFB151
	.byte	0xe
	.uleb128 0x8
	.byte	0x83
	.uleb128 0x2
	.byte	0x8e
	.uleb128 0x1
	.align	2
.LEFDE10:
.LSFDE12:
	.4byte	.LEFDE12-.LASFDE12
.LASFDE12:
	.4byte	.Lframe0
	.4byte	.LFB152
	.4byte	.LFE152-.LFB152
	.byte	0x4
	.4byte	.LCFI14-.LFB152
	.byte	0xe
	.uleb128 0x8
	.byte	0x83
	.uleb128 0x2
	.byte	0x8e
	.uleb128 0x1
	.align	2
.LEFDE12:
.LSFDE14:
	.4byte	.LEFDE14-.LASFDE14
.LASFDE14:
	.4byte	.Lframe0
	.4byte	.LFB153
	.4byte	.LFE153-.LFB153
	.byte	0x4
	.4byte	.LCFI15-.LFB153
	.byte	0xe
	.uleb128 0x8
	.byte	0x83
	.uleb128 0x2
	.byte	0x8e
	.uleb128 0x1
	.align	2
.LEFDE14:
.LSFDE16:
	.4byte	.LEFDE16-.LASFDE16
.LASFDE16:
	.4byte	.Lframe0
	.4byte	.LFB154
	.4byte	.LFE154-.LFB154
	.byte	0x4
	.4byte	.LCFI16-.LFB154
	.byte	0xe
	.uleb128 0x8
	.byte	0x83
	.uleb128 0x2
	.byte	0x8e
	.uleb128 0x1
	.align	2
.LEFDE16:
.LSFDE18:
	.4byte	.LEFDE18-.LASFDE18
.LASFDE18:
	.4byte	.Lframe0
	.4byte	.LFB155
	.4byte	.LFE155-.LFB155
	.byte	0x4
	.4byte	.LCFI17-.LFB155
	.byte	0xe
	.uleb128 0x8
	.byte	0x83
	.uleb128 0x2
	.byte	0x8e
	.uleb128 0x1
	.align	2
.LEFDE18:
.LSFDE20:
	.4byte	.LEFDE20-.LASFDE20
.LASFDE20:
	.4byte	.Lframe0
	.4byte	.LFB156
	.4byte	.LFE156-.LFB156
	.byte	0x4
	.4byte	.LCFI18-.LFB156
	.byte	0xe
	.uleb128 0x8
	.byte	0x83
	.uleb128 0x2
	.byte	0x8e
	.uleb128 0x1
	.align	2
.LEFDE20:
.LSFDE22:
	.4byte	.LEFDE22-.LASFDE22
.LASFDE22:
	.4byte	.Lframe0
	.4byte	.LFB157
	.4byte	.LFE157-.LFB157
	.byte	0x4
	.4byte	.LCFI19-.LFB157
	.byte	0xe
	.uleb128 0x8
	.byte	0x83
	.uleb128 0x2
	.byte	0x8e
	.uleb128 0x1
	.align	2
.LEFDE22:
.LSFDE24:
	.4byte	.LEFDE24-.LASFDE24
.LASFDE24:
	.4byte	.Lframe0
	.4byte	.LFB158
	.4byte	.LFE158-.LFB158
	.byte	0x4
	.4byte	.LCFI20-.LFB158
	.byte	0xe
	.uleb128 0x8
	.byte	0x83
	.uleb128 0x2
	.byte	0x8e
	.uleb128 0x1
	.align	2
.LEFDE24:
.LSFDE26:
	.4byte	.LEFDE26-.LASFDE26
.LASFDE26:
	.4byte	.Lframe0
	.4byte	.LFB159
	.4byte	.LFE159-.LFB159
	.byte	0x4
	.4byte	.LCFI21-.LFB159
	.byte	0xe
	.uleb128 0x8
	.byte	0x83
	.uleb128 0x2
	.byte	0x8e
	.uleb128 0x1
	.align	2
.LEFDE26:
.LSFDE28:
	.4byte	.LEFDE28-.LASFDE28
.LASFDE28:
	.4byte	.Lframe0
	.4byte	.LFB160
	.4byte	.LFE160-.LFB160
	.byte	0x4
	.4byte	.LCFI22-.LFB160
	.byte	0xe
	.uleb128 0x8
	.byte	0x83
	.uleb128 0x2
	.byte	0x8e
	.uleb128 0x1
	.align	2
.LEFDE28:
.LSFDE30:
	.4byte	.LEFDE30-.LASFDE30
.LASFDE30:
	.4byte	.Lframe0
	.4byte	.LFB161
	.4byte	.LFE161-.LFB161
	.byte	0x4
	.4byte	.LCFI23-.LFB161
	.byte	0xe
	.uleb128 0x8
	.byte	0x83
	.uleb128 0x2
	.byte	0x8e
	.uleb128 0x1
	.align	2
.LEFDE30:
.LSFDE32:
	.4byte	.LEFDE32-.LASFDE32
.LASFDE32:
	.4byte	.Lframe0
	.4byte	.LFB162
	.4byte	.LFE162-.LFB162
	.byte	0x4
	.4byte	.LCFI24-.LFB162
	.byte	0xe
	.uleb128 0x8
	.byte	0x83
	.uleb128 0x2
	.byte	0x8e
	.uleb128 0x1
	.align	2
.LEFDE32:
.LSFDE34:
	.4byte	.LEFDE34-.LASFDE34
.LASFDE34:
	.4byte	.Lframe0
	.4byte	.LFB163
	.4byte	.LFE163-.LFB163
	.byte	0x4
	.4byte	.LCFI25-.LFB163
	.byte	0xe
	.uleb128 0x8
	.byte	0x83
	.uleb128 0x2
	.byte	0x8e
	.uleb128 0x1
	.align	2
.LEFDE34:
.LSFDE36:
	.4byte	.LEFDE36-.LASFDE36
.LASFDE36:
	.4byte	.Lframe0
	.4byte	.LFB164
	.4byte	.LFE164-.LFB164
	.byte	0x4
	.4byte	.LCFI26-.LFB164
	.byte	0xe
	.uleb128 0x8
	.byte	0x83
	.uleb128 0x2
	.byte	0x8e
	.uleb128 0x1
	.align	2
.LEFDE36:
.LSFDE38:
	.4byte	.LEFDE38-.LASFDE38
.LASFDE38:
	.4byte	.Lframe0
	.4byte	.LFB165
	.4byte	.LFE165-.LFB165
	.byte	0x4
	.4byte	.LCFI27-.LFB165
	.byte	0xe
	.uleb128 0x8
	.byte	0x83
	.uleb128 0x2
	.byte	0x8e
	.uleb128 0x1
	.align	2
.LEFDE38:
.LSFDE40:
	.4byte	.LEFDE40-.LASFDE40
.LASFDE40:
	.4byte	.Lframe0
	.4byte	.LFB166
	.4byte	.LFE166-.LFB166
	.byte	0x4
	.4byte	.LCFI28-.LFB166
	.byte	0xe
	.uleb128 0x8
	.byte	0x83
	.uleb128 0x2
	.byte	0x8e
	.uleb128 0x1
	.align	2
.LEFDE40:
.LSFDE42:
	.4byte	.LEFDE42-.LASFDE42
.LASFDE42:
	.4byte	.Lframe0
	.4byte	.LFB167
	.4byte	.LFE167-.LFB167
	.byte	0x4
	.4byte	.LCFI29-.LFB167
	.byte	0xe
	.uleb128 0x8
	.byte	0x83
	.uleb128 0x2
	.byte	0x8e
	.uleb128 0x1
	.align	2
.LEFDE42:
.LSFDE44:
	.4byte	.LEFDE44-.LASFDE44
.LASFDE44:
	.4byte	.Lframe0
	.4byte	.LFB168
	.4byte	.LFE168-.LFB168
	.byte	0x4
	.4byte	.LCFI30-.LFB168
	.byte	0xe
	.uleb128 0x8
	.byte	0x83
	.uleb128 0x2
	.byte	0x8e
	.uleb128 0x1
	.align	2
.LEFDE44:
.LSFDE46:
	.4byte	.LEFDE46-.LASFDE46
.LASFDE46:
	.4byte	.Lframe0
	.4byte	.LFB169
	.4byte	.LFE169-.LFB169
	.byte	0x4
	.4byte	.LCFI31-.LFB169
	.byte	0xe
	.uleb128 0x8
	.byte	0x83
	.uleb128 0x2
	.byte	0x8e
	.uleb128 0x1
	.align	2
.LEFDE46:
.LSFDE48:
	.4byte	.LEFDE48-.LASFDE48
.LASFDE48:
	.4byte	.Lframe0
	.4byte	.LFB170
	.4byte	.LFE170-.LFB170
	.byte	0x4
	.4byte	.LCFI32-.LFB170
	.byte	0xe
	.uleb128 0x8
	.byte	0x83
	.uleb128 0x2
	.byte	0x8e
	.uleb128 0x1
	.align	2
.LEFDE48:
.LSFDE50:
	.4byte	.LEFDE50-.LASFDE50
.LASFDE50:
	.4byte	.Lframe0
	.4byte	.LFB171
	.4byte	.LFE171-.LFB171
	.byte	0x4
	.4byte	.LCFI33-.LFB171
	.byte	0xe
	.uleb128 0x4
	.byte	0x8e
	.uleb128 0x1
	.byte	0x4
	.4byte	.LCFI34-.LCFI33
	.byte	0xe
	.uleb128 0x10
	.byte	0x4
	.4byte	.LCFI35-.LCFI34
	.byte	0xe
	.uleb128 0x4
	.align	2
.LEFDE50:
.LSFDE52:
	.4byte	.LEFDE52-.LASFDE52
.LASFDE52:
	.4byte	.Lframe0
	.4byte	.LFB172
	.4byte	.LFE172-.LFB172
	.byte	0x4
	.4byte	.LCFI36-.LFB172
	.byte	0xe
	.uleb128 0x4
	.byte	0x8e
	.uleb128 0x1
	.byte	0x4
	.4byte	.LCFI37-.LCFI36
	.byte	0xe
	.uleb128 0x10
	.byte	0x4
	.4byte	.LCFI38-.LCFI37
	.byte	0xe
	.uleb128 0x4
	.align	2
.LEFDE52:
.LSFDE54:
	.4byte	.LEFDE54-.LASFDE54
.LASFDE54:
	.4byte	.Lframe0
	.4byte	.LFB173
	.4byte	.LFE173-.LFB173
	.byte	0x4
	.4byte	.LCFI39-.LFB173
	.byte	0xe
	.uleb128 0x4
	.byte	0x8e
	.uleb128 0x1
	.byte	0x4
	.4byte	.LCFI40-.LCFI39
	.byte	0xe
	.uleb128 0x10
	.byte	0x4
	.4byte	.LCFI41-.LCFI40
	.byte	0xe
	.uleb128 0x4
	.align	2
.LEFDE54:
.LSFDE56:
	.4byte	.LEFDE56-.LASFDE56
.LASFDE56:
	.4byte	.Lframe0
	.4byte	.LFB174
	.4byte	.LFE174-.LFB174
	.byte	0x4
	.4byte	.LCFI42-.LFB174
	.byte	0xe
	.uleb128 0x8
	.byte	0x83
	.uleb128 0x2
	.byte	0x8e
	.uleb128 0x1
	.align	2
.LEFDE56:
	.text
.Letext0:
	.file 2 "/usr/share/crossworks_for_arm_4.7/include/__crossworks.h"
	.file 3 "/usr/share/crossworks_for_arm_4.7/include/stdint.h"
	.file 4 "/home/mymy49/.rowley_associates_limited/CrossWorks for ARM/v4/packages/CMSIS_5/CMSIS/Core/Include/core_cm7.h"
	.file 5 "/home/mymy49/.rowley_associates_limited/CrossWorks for ARM/v4/packages/targets/STM32/include/system_stm32f7xx.h"
	.file 6 "/home/mymy49/.rowley_associates_limited/CrossWorks for ARM/v4/packages/targets/STM32/include/stm32f746xx.h"
	.file 7 "/home/mymy49/library/yss/yss/inc/drv/adc/drv_st_adc_type_A_define.h"
	.file 8 "/home/mymy49/library/yss/yss/inc/drv/dma/drv_st_dma_type_A_define.h"
	.file 9 "/home/mymy49/library/yss/yss/inc/drv/clock/drv_st_clock_type_A_define.h"
	.file 10 "/home/mymy49/library/yss/yss/inc/drv/gpio/drv_st_gpio_type_A_define.h"
	.file 11 "/home/mymy49/library/yss/yss/inc/drv/timer/drv_st_timer_type_A_define.h"
	.file 12 "/home/mymy49/library/yss/yss/inc/drv/syscfg/drv_st_syscfg_type_A_define.h"
	.file 13 "/home/mymy49/library/yss/yss/inc/drv/rtc/drv_st_rtc_type_A_define.h"
	.file 14 "/home/mymy49/library/yss/yss/inc/drv/uart/drv_st_uart_type_A_define.h"
	.file 15 "/home/mymy49/library/yss/yss/inc/drv/i2c/drv_st_i2c_type_A_define.h"
	.file 16 "/home/mymy49/library/yss/yss/inc/drv/exti/drv_st_exti_type_A_define.h"
	.file 17 "/home/mymy49/library/yss/yss/inc/drv/ltdc/drv_st_ltdc_type_A_define.h"
	.file 18 "/home/mymy49/library/yss/yss/inc/drv/dma2d/drv_st_dma2d_type_A_define.h"
	.file 19 "/home/mymy49/library/yss/yss/inc/drv/usbd/drv_st_usbd_type_A_define.h"
	.file 20 "/home/mymy49/library/yss/yss/inc/drv/quadspi/drv_st_quadspi_type_A_define.h"
	.file 21 "/home/mymy49/library/yss/yss/inc/drv/sdram/drv_st_sdram_type_A_define.h"
	.file 22 "/home/mymy49/library/yss/yss/inc/drv/sdmmc/drv_st_sdmmc_type_A_define.h"
	.file 23 "/home/mymy49/library/yss/yss/inc/drv/spi/drv_spi_common.h"
	.file 24 "/home/mymy49/library/yss/yss/inc/yss/Mutex.h"
	.file 25 "/home/mymy49/library/yss/yss/inc/drv/Drv.h"
	.file 26 "/home/mymy49/library/yss/yss/inc/drv/adc/drv_st_adc_type_A.h"
	.file 27 "/home/mymy49/library/yss/yss/inc/drv/dma/drv_st_dma_type_A.h"
	.file 28 "/home/mymy49/library/yss/yss/inc/drv/clock/drv_st_clock_type_A.h"
	.file 29 "/home/mymy49/library/yss/yss/inc/drv/gpio/drv_st_gpio_type_A.h"
	.file 30 "/home/mymy49/library/yss/yss/inc/drv/timer/drv_st_timer_type_A.h"
	.file 31 "/home/mymy49/library/yss/yss/inc/drv/syscfg/drv_st_syscfg_type_A.h"
	.file 32 "/home/mymy49/library/yss/yss/inc/drv/nvic/drv_st_nvic_type_A.h"
	.file 33 "/home/mymy49/library/yss/yss/inc/drv/uart/drv_st_uart_type_A.h"
	.file 34 "/home/mymy49/library/yss/yss/inc/drv/i2c/drv_st_i2c_type_A.h"
	.file 35 "/home/mymy49/library/yss/yss/inc/drv/exti/drv_st_exti_type_A.h"
	.file 36 "/home/mymy49/library/yss/yss/inc/drv/ltdc/drv_st_ltdc_type_A.h"
	.file 37 "/home/mymy49/library/yss/yss/inc/drv/flash/drv_st_flash_type_A.h"
	.file 38 "/home/mymy49/library/yss/yss/inc/drv/dma2d/drv_st_dma2d_type_A.h"
	.file 39 "/home/mymy49/library/yss/yss/inc/drv/usbd/drv_st_usbd_type_A.h"
	.file 40 "/home/mymy49/library/yss/yss/inc/drv/quadspi/drv_st_quadspi_type_A.h"
	.file 41 "/home/mymy49/library/yss/yss/inc/drv/sdram/drv_st_sdram_type_A.h"
	.file 42 "/home/mymy49/library/yss/yss/inc/drv/sdmmc/drv_st_sdmmc_type_A.h"
	.file 43 "/home/mymy49/library/yss/yss/inc/drv/can/drv_st_can_type_A.h"
	.file 44 "/home/mymy49/library/yss/yss/inc/drv/spi/drv_spi_not_support.h"
	.file 45 "/home/mymy49/library/yss/yss/inc/sac/Comm.h"
	.file 46 "/home/mymy49/library/yss/yss/inc/drv/clock/drv_st_clock_type_A_ec.h"
	.file 47 "/home/mymy49/library/yss/yss/inc/drv/clock/drv_st_clock_type_A_config.h"
	.file 48 "/home/mymy49/library/yss/yss/inc/drv/gpio/drv_st_gpio_type_A_config.h"
	.file 49 "/home/mymy49/library/yss/yss/inc/drv/drv_Gpio.h"
	.file 50 "/home/mymy49/library/yss/yss/inc/drv/ltdc/drv_ltdc_config.h"
	.file 51 "/home/mymy49/library/yss/yss/inc/drv/usbd/drv_usbd_config.h"
	.file 52 "/home/mymy49/library/yss/yss/inc/drv/usbd/drv_st_usbd_type_A_config.h"
	.file 53 "/home/mymy49/library/yss/yss/inc/drv/quadspi/drv_st_quadspi_type_A_config.h"
	.file 54 "/home/mymy49/library/yss/yss/inc/drv/sdram/drv_sdram_config.h"
	.file 55 "/home/mymy49/library/yss/yss/inc/drv/sdmmc/drv_st_sdmmc_type_A_config.h"
	.file 56 "/home/mymy49/library/yss/yss/inc/drv/rtc/drv_st_rtc_type_A.h"
	.file 57 "/home/mymy49/library/yss/yss/inc/gui/util.h"
	.file 58 "/home/mymy49/library/yss/yss/inc/gui/Bmp565.h"
	.file 59 "/home/mymy49/library/yss/yss/inc/gui/Font.h"