	.cpu cortex-m0plus
	.eabi_attribute 20, 1
	.eabi_attribute 21, 1
	.eabi_attribute 23, 3
	.eabi_attribute 24, 1
	.eabi_attribute 25, 1
	.eabi_attribute 26, 1
	.eabi_attribute 30, 6
	.eabi_attribute 34, 0
	.eabi_attribute 18, 4
	.file	"yss_TimeLapse.cpp"
	.text
.Ltext0:
	.section	.text._ZN9TimeLapseC2Ev,"ax",%progbits
	.align	1
	.global	_ZN9TimeLapseC2Ev
	.syntax unified
	.code	16
	.thumb_func
	.fpu softvfp
	.type	_ZN9TimeLapseC2Ev, %function
_ZN9TimeLapseC2Ev:
.LFB1:
	.file 1 "/home/mymy49/library/yss/yss/util/yss_TimeLapse.cpp"
	.loc 1 5 1
	@ args = 0, pretend = 0, frame = 8
	@ frame_needed = 0, uses_anonymous_args = 0
	push	{lr}
.LCFI0:
	sub	sp, sp, #12
.LCFI1:
	str	r0, [sp, #4]
.LBB2:
	.loc 1 7 35
	bl	_ZN4time14getRunningUsecEv
	movs	r2, r0
	movs	r3, r1
	.loc 1 7 13
	ldr	r1, [sp, #4]
	str	r2, [r1]
	str	r3, [r1, #4]
.LBE2:
	.loc 1 8 1
	ldr	r3, [sp, #4]
	movs	r0, r3
	add	sp, sp, #12
	@ sp needed
	pop	{pc}
.LFE1:
	.size	_ZN9TimeLapseC2Ev, .-_ZN9TimeLapseC2Ev
	.global	_ZN9TimeLapseC1Ev
	.thumb_set _ZN9TimeLapseC1Ev,_ZN9TimeLapseC2Ev
	.section	.text._ZN9TimeLapse5resetEv,"ax",%progbits
	.align	1
	.global	_ZN9TimeLapse5resetEv
	.syntax unified
	.code	16
	.thumb_func
	.fpu softvfp
	.type	_ZN9TimeLapse5resetEv, %function
_ZN9TimeLapse5resetEv:
.LFB3:
	.loc 1 11 1
	@ args = 0, pretend = 0, frame = 8
	@ frame_needed = 0, uses_anonymous_args = 0
	push	{lr}
.LCFI2:
	sub	sp, sp, #12
.LCFI3:
	str	r0, [sp, #4]
	.loc 1 12 35
	bl	_ZN4time14getRunningUsecEv
	movs	r2, r0
	movs	r3, r1
	.loc 1 12 13
	ldr	r1, [sp, #4]
	str	r2, [r1]
	str	r3, [r1, #4]
	.loc 1 13 1
	nop
	add	sp, sp, #12
	@ sp needed
	pop	{pc}
.LFE3:
	.size	_ZN9TimeLapse5resetEv, .-_ZN9TimeLapse5resetEv
	.section	.text._ZN9TimeLapse7getUsecEv,"ax",%progbits
	.align	1
	.global	_ZN9TimeLapse7getUsecEv
	.syntax unified
	.code	16
	.thumb_func
	.fpu softvfp
	.type	_ZN9TimeLapse7getUsecEv, %function
_ZN9TimeLapse7getUsecEv:
.LFB4:
	.loc 1 16 1
	@ args = 0, pretend = 0, frame = 8
	@ frame_needed = 0, uses_anonymous_args = 0
	push	{lr}
.LCFI4:
	sub	sp, sp, #12
.LCFI5:
	str	r0, [sp, #4]
	.loc 1 17 29
	bl	_ZN4time14getRunningUsecEv
	movs	r2, r0
	movs	r3, r1
	.loc 1 17 32
	movs	r1, r2
	.loc 1 17 34
	ldr	r3, [sp, #4]
	ldr	r2, [r3]
	ldr	r3, [r3, #4]
	.loc 1 17 32
	movs	r3, r2
	.loc 1 17 34
	subs	r3, r1, r3
	.loc 1 18 1
	movs	r0, r3
	add	sp, sp, #12
	@ sp needed
	pop	{pc}
.LFE4:
	.size	_ZN9TimeLapse7getUsecEv, .-_ZN9TimeLapse7getUsecEv
	.global	__aeabi_uldivmod
	.section	.text._ZN9TimeLapse7getMsecEv,"ax",%progbits
	.align	1
	.global	_ZN9TimeLapse7getMsecEv
	.syntax unified
	.code	16
	.thumb_func
	.fpu softvfp
	.type	_ZN9TimeLapse7getMsecEv, %function
_ZN9TimeLapse7getMsecEv:
.LFB5:
	.loc 1 21 1
	@ args = 0, pretend = 0, frame = 8
	@ frame_needed = 0, uses_anonymous_args = 0
	push	{lr}
.LCFI6:
	sub	sp, sp, #12
.LCFI7:
	str	r0, [sp, #4]
	.loc 1 22 30
	bl	_ZN4time14getRunningUsecEv
	.loc 1 22 35
	ldr	r3, [sp, #4]
	ldr	r2, [r3]
	ldr	r3, [r3, #4]
	.loc 1 22 33
	subs	r0, r0, r2
	sbcs	r1, r1, r3
	.loc 1 22 47
	movs	r2, #250
	lsls	r2, r2, #2
	movs	r3, #0
	bl	__aeabi_uldivmod
.LVL0:
	movs	r2, r0
	movs	r3, r1
	.loc 1 22 49
	movs	r3, r2
	.loc 1 23 1
	movs	r0, r3
	add	sp, sp, #12
	@ sp needed
	pop	{pc}
.LFE5:
	.size	_ZN9TimeLapse7getMsecEv, .-_ZN9TimeLapse7getMsecEv
	.section	.text._ZN9TimeLapse6getSecEv,"ax",%progbits
	.align	1
	.global	_ZN9TimeLapse6getSecEv
	.syntax unified
	.code	16
	.thumb_func
	.fpu softvfp
	.type	_ZN9TimeLapse6getSecEv, %function
_ZN9TimeLapse6getSecEv:
.LFB6:
	.loc 1 26 1
	@ args = 0, pretend = 0, frame = 8
	@ frame_needed = 0, uses_anonymous_args = 0
	push	{lr}
.LCFI8:
	sub	sp, sp, #12
.LCFI9:
	str	r0, [sp, #4]
	.loc 1 27 30
	bl	_ZN4time14getRunningUsecEv
	.loc 1 27 35
	ldr	r3, [sp, #4]
	ldr	r2, [r3]
	ldr	r3, [r3, #4]
	.loc 1 27 33
	subs	r0, r0, r2
	sbcs	r1, r1, r3
	.loc 1 27 47
	ldr	r2, .L10
	movs	r3, #0
	bl	__aeabi_uldivmod
.LVL1:
	movs	r2, r0
	movs	r3, r1
	.loc 1 27 49
	movs	r3, r2
	.loc 1 28 1
	movs	r0, r3
	add	sp, sp, #12
	@ sp needed
	pop	{pc}
.L11:
	.align	2
.L10:
	.word	1000000
.LFE6:
	.size	_ZN9TimeLapse6getSecEv, .-_ZN9TimeLapse6getSecEv
	.section	.debug_frame,"",%progbits
.Lframe0:
	.4byte	.LECIE0-.LSCIE0
.LSCIE0:
	.4byte	0xffffffff
	.byte	0x3
	.ascii	"\000"
	.uleb128 0x1
	.sleb128 -4
	.uleb128 0xe
	.byte	0xc
	.uleb128 0xd
	.uleb128 0
	.align	2
.LECIE0:
.LSFDE0:
	.4byte	.LEFDE0-.LASFDE0
.LASFDE0:
	.4byte	.Lframe0
	.4byte	.LFB1
	.4byte	.LFE1-.LFB1
	.byte	0x4
	.4byte	.LCFI0-.LFB1
	.byte	0xe
	.uleb128 0x4
	.byte	0x8e
	.uleb128 0x1
	.byte	0x4
	.4byte	.LCFI1-.LCFI0
	.byte	0xe
	.uleb128 0x10
	.align	2
.LEFDE0:
.LSFDE2:
	.4byte	.LEFDE2-.LASFDE2
.LASFDE2:
	.4byte	.Lframe0
	.4byte	.LFB3
	.4byte	.LFE3-.LFB3
	.byte	0x4
	.4byte	.LCFI2-.LFB3
	.byte	0xe
	.uleb128 0x4
	.byte	0x8e
	.uleb128 0x1
	.byte	0x4
	.4byte	.LCFI3-.LCFI2
	.byte	0xe
	.uleb128 0x10
	.align	2
.LEFDE2:
.LSFDE4:
	.4byte	.LEFDE4-.LASFDE4
.LASFDE4:
	.4byte	.Lframe0
	.4byte	.LFB4
	.4byte	.LFE4-.LFB4
	.byte	0x4
	.4byte	.LCFI4-.LFB4
	.byte	0xe
	.uleb128 0x4
	.byte	0x8e
	.uleb128 0x1
	.byte	0x4
	.4byte	.LCFI5-.LCFI4
	.byte	0xe
	.uleb128 0x10
	.align	2
.LEFDE4:
.LSFDE6:
	.4byte	.LEFDE6-.LASFDE6
.LASFDE6:
	.4byte	.Lframe0
	.4byte	.LFB5
	.4byte	.LFE5-.LFB5
	.byte	0x4
	.4byte	.LCFI6-.LFB5
	.byte	0xe
	.uleb128 0x4
	.byte	0x8e
	.uleb128 0x1
	.byte	0x4
	.4byte	.LCFI7-.LCFI6
	.byte	0xe
	.uleb128 0x10
	.align	2
.LEFDE6:
.LSFDE8:
	.4byte	.LEFDE8-.LASFDE8
.LASFDE8:
	.4byte	.Lframe0
	.4byte	.LFB6
	.4byte	.LFE6-.LFB6
	.byte	0x4
	.4byte	.LCFI8-.LFB6
	.byte	0xe
	.uleb128 0x4
	.byte	0x8e
	.uleb128 0x1
	.byte	0x4
	.4byte	.LCFI9-.LCFI8
	.byte	0xe
	.uleb128 0x10
	.align	2
.LEFDE8:
	.text
.Letext0:
	.file 2 "/home/mymy49/library/yss/yss/inc/util/TimeLapse.h"