	.cpu cortex-m4
	.eabi_attribute 20, 1
	.eabi_attribute 21, 1
	.eabi_attribute 23, 3
	.eabi_attribute 24, 1
	.eabi_attribute 25, 1
	.eabi_attribute 26, 1
	.eabi_attribute 30, 6
	.eabi_attribute 34, 1
	.eabi_attribute 18, 4
	.file	"yss_key.cpp"
	.text
.Ltext0:
	.section	.bss._ZL4gKey,"aw",%nobits
	.align	2
	.type	_ZL4gKey, %object
	.size	_ZL4gKey, 0
_ZL4gKey:
	.global	_ZN3key11gHandlerCntE
	.section	.bss._ZN3key11gHandlerCntE,"aw",%nobits
	.type	_ZN3key11gHandlerCntE, %object
	.size	_ZN3key11gHandlerCntE, 1
_ZN3key11gHandlerCntE:
	.space	1
	.section	.text._ZN3key5clearEv,"ax",%progbits
	.align	1
	.global	_ZN3key5clearEv
	.syntax unified
	.thumb
	.thumb_func
	.fpu softvfp
	.type	_ZN3key5clearEv, %function
_ZN3key5clearEv:
.LFB0:
	.file 1 "/home/mymy49/library/yss/yss/util/yss_key.cpp"
	.loc 1 67 2
	@ args = 0, pretend = 0, frame = 8
	@ frame_needed = 0, uses_anonymous_args = 0
	push	{lr}
.LCFI0:
	sub	sp, sp, #12
.LCFI1:
.LBB2:
	.loc 1 68 11
	movs	r3, #0
	str	r3, [sp, #4]
.L3:
	.loc 1 68 17 discriminator 3
	ldr	r3, .L4
	ldrb	r3, [r3]	@ zero_extendqisi2
	mov	r2, r3
	.loc 1 68 16 discriminator 3
	ldr	r3, [sp, #4]
	cmp	r3, r2
	bge	.L2
	.loc 1 69 17 discriminator 2
	ldr	r2, [sp, #4]
	mov	r3, r2
	lsls	r3, r3, #1
	add	r3, r3, r2
	lsls	r3, r3, #4
	ldr	r2, .L4+4
	add	r3, r3, r2
	mov	r0, r3
	bl	_ZN3Key5resetEv
	.loc 1 68 3 discriminator 2
	ldr	r3, [sp, #4]
	adds	r3, r3, #1
	str	r3, [sp, #4]
	b	.L3
.L2:
.LBE2:
	.loc 1 70 15
	ldr	r3, .L4
	movs	r2, #0
	strb	r2, [r3]
	.loc 1 71 2
	nop
	add	sp, sp, #12
.LCFI2:
	@ sp needed
	ldr	pc, [sp], #4
.L5:
	.align	2
.L4:
	.word	_ZN3key11gHandlerCntE
	.word	_ZL4gKey
.LFE0:
	.size	_ZN3key5clearEv, .-_ZN3key5clearEv
	.section	.text._ZN3key14addPushHandlerEPFbvEPFvvEi,"ax",%progbits
	.align	1
	.global	_ZN3key14addPushHandlerEPFbvEPFvvEi
	.syntax unified
	.thumb
	.thumb_func
	.fpu softvfp
	.type	_ZN3key14addPushHandlerEPFbvEPFvvEi, %function
_ZN3key14addPushHandlerEPFbvEPFvvEi:
.LFB1:
	.loc 1 74 2
	@ args = 0, pretend = 0, frame = 16
	@ frame_needed = 0, uses_anonymous_args = 0
	@ link register save eliminated.
	sub	sp, sp, #16
.LCFI3:
	str	r0, [sp, #12]
	str	r1, [sp, #8]
	str	r2, [sp, #4]
	.loc 1 76 11
	movs	r3, #0
	.loc 1 85 2
	mov	r0, r3
	add	sp, sp, #16
.LCFI4:
	@ sp needed
	bx	lr
.LFE1:
	.size	_ZN3key14addPushHandlerEPFbvEPFvvEi, .-_ZN3key14addPushHandlerEPFbvEPFvvEi
	.section	.text._ZN3key14addPushHandlerEPFbvERbi,"ax",%progbits
	.align	1
	.global	_ZN3key14addPushHandlerEPFbvERbi
	.syntax unified
	.thumb
	.thumb_func
	.fpu softvfp
	.type	_ZN3key14addPushHandlerEPFbvERbi, %function
_ZN3key14addPushHandlerEPFbvERbi:
.LFB2:
	.loc 1 88 2
	@ args = 0, pretend = 0, frame = 16
	@ frame_needed = 0, uses_anonymous_args = 0
	@ link register save eliminated.
	sub	sp, sp, #16
.LCFI5:
	str	r0, [sp, #12]
	str	r1, [sp, #8]
	str	r2, [sp, #4]
	.loc 1 90 11
	movs	r3, #0
	.loc 1 99 2
	mov	r0, r3
	add	sp, sp, #16
.LCFI6:
	@ sp needed
	bx	lr
.LFE2:
	.size	_ZN3key14addPushHandlerEPFbvERbi, .-_ZN3key14addPushHandlerEPFbvERbi
	.section	.text._ZN3key20addHandlerWithRepeatEPFbvEPFvvEj,"ax",%progbits
	.align	1
	.global	_ZN3key20addHandlerWithRepeatEPFbvEPFvvEj
	.syntax unified
	.thumb
	.thumb_func
	.fpu softvfp
	.type	_ZN3key20addHandlerWithRepeatEPFbvEPFvvEj, %function
_ZN3key20addHandlerWithRepeatEPFbvEPFvvEj:
.LFB3:
	.loc 1 102 2
	@ args = 0, pretend = 0, frame = 16
	@ frame_needed = 0, uses_anonymous_args = 0
	@ link register save eliminated.
	sub	sp, sp, #16
.LCFI7:
	str	r0, [sp, #12]
	str	r1, [sp, #8]
	str	r2, [sp, #4]
	.loc 1 104 11
	movs	r3, #0
	.loc 1 107 2
	mov	r0, r3
	add	sp, sp, #16
.LCFI8:
	@ sp needed
	bx	lr
.LFE3:
	.size	_ZN3key20addHandlerWithRepeatEPFbvEPFvvEj, .-_ZN3key20addHandlerWithRepeatEPFbvEPFvvEj
	.section	.text._ZN3key17addCountUpHandlerEPFbvERiiib,"ax",%progbits
	.align	1
	.global	_ZN3key17addCountUpHandlerEPFbvERiiib
	.syntax unified
	.thumb
	.thumb_func
	.fpu softvfp
	.type	_ZN3key17addCountUpHandlerEPFbvERiiib, %function
_ZN3key17addCountUpHandlerEPFbvERiiib:
.LFB4:
	.loc 1 110 2
	@ args = 4, pretend = 0, frame = 16
	@ frame_needed = 0, uses_anonymous_args = 0
	@ link register save eliminated.
	sub	sp, sp, #16
.LCFI9:
	str	r0, [sp, #12]
	str	r1, [sp, #8]
	str	r2, [sp, #4]
	str	r3, [sp]
	.loc 1 112 11
	movs	r3, #0
	.loc 1 116 2
	mov	r0, r3
	add	sp, sp, #16
.LCFI10:
	@ sp needed
	bx	lr
.LFE4:
	.size	_ZN3key17addCountUpHandlerEPFbvERiiib, .-_ZN3key17addCountUpHandlerEPFbvERiiib
	.section	.text._ZN3key27addCountUpHandlerWithRepeatEPFbvERiiibjj,"ax",%progbits
	.align	1
	.global	_ZN3key27addCountUpHandlerWithRepeatEPFbvERiiibjj
	.syntax unified
	.thumb
	.thumb_func
	.fpu softvfp
	.type	_ZN3key27addCountUpHandlerWithRepeatEPFbvERiiibjj, %function
_ZN3key27addCountUpHandlerWithRepeatEPFbvERiiibjj:
.LFB5:
	.loc 1 119 2
	@ args = 12, pretend = 0, frame = 16
	@ frame_needed = 0, uses_anonymous_args = 0
	@ link register save eliminated.
	sub	sp, sp, #16
.LCFI11:
	str	r0, [sp, #12]
	str	r1, [sp, #8]
	str	r2, [sp, #4]
	str	r3, [sp]
	.loc 1 121 11
	movs	r3, #0
	.loc 1 125 2
	mov	r0, r3
	add	sp, sp, #16
.LCFI12:
	@ sp needed
	bx	lr
.LFE5:
	.size	_ZN3key27addCountUpHandlerWithRepeatEPFbvERiiibjj, .-_ZN3key27addCountUpHandlerWithRepeatEPFbvERiiibjj
	.section	.text._ZN3key19addCountDownHandlerEPFbvERiiib,"ax",%progbits
	.align	1
	.global	_ZN3key19addCountDownHandlerEPFbvERiiib
	.syntax unified
	.thumb
	.thumb_func
	.fpu softvfp
	.type	_ZN3key19addCountDownHandlerEPFbvERiiib, %function
_ZN3key19addCountDownHandlerEPFbvERiiib:
.LFB6:
	.loc 1 128 2
	@ args = 4, pretend = 0, frame = 16
	@ frame_needed = 0, uses_anonymous_args = 0
	@ link register save eliminated.
	sub	sp, sp, #16
.LCFI13:
	str	r0, [sp, #12]
	str	r1, [sp, #8]
	str	r2, [sp, #4]
	str	r3, [sp]
	.loc 1 130 11
	movs	r3, #0
	.loc 1 134 2
	mov	r0, r3
	add	sp, sp, #16
.LCFI14:
	@ sp needed
	bx	lr
.LFE6:
	.size	_ZN3key19addCountDownHandlerEPFbvERiiib, .-_ZN3key19addCountDownHandlerEPFbvERiiib
	.section	.text._ZN3key29addCountDownHandlerWithRepeatEPFbvERiiibjj,"ax",%progbits
	.align	1
	.global	_ZN3key29addCountDownHandlerWithRepeatEPFbvERiiibjj
	.syntax unified
	.thumb
	.thumb_func
	.fpu softvfp
	.type	_ZN3key29addCountDownHandlerWithRepeatEPFbvERiiibjj, %function
_ZN3key29addCountDownHandlerWithRepeatEPFbvERiiibjj:
.LFB7:
	.loc 1 137 2
	@ args = 12, pretend = 0, frame = 16
	@ frame_needed = 0, uses_anonymous_args = 0
	@ link register save eliminated.
	sub	sp, sp, #16
.LCFI15:
	str	r0, [sp, #12]
	str	r1, [sp, #8]
	str	r2, [sp, #4]
	str	r3, [sp]
	.loc 1 139 11
	movs	r3, #0
	.loc 1 143 2
	mov	r0, r3
	add	sp, sp, #16
.LCFI16:
	@ sp needed
	bx	lr
.LFE7:
	.size	_ZN3key29addCountDownHandlerWithRepeatEPFbvERiiibjj, .-_ZN3key29addCountDownHandlerWithRepeatEPFbvERiiibjj
	.section	.text._ZN3KeyC2Ev,"ax",%progbits
	.align	1
	.global	_ZN3KeyC2Ev
	.syntax unified
	.thumb
	.thumb_func
	.fpu softvfp
	.type	_ZN3KeyC2Ev, %function
_ZN3KeyC2Ev:
.LFB9:
	.loc 1 154 1
	@ args = 0, pretend = 0, frame = 8
	@ frame_needed = 0, uses_anonymous_args = 0
	push	{lr}
.LCFI17:
	sub	sp, sp, #12
.LCFI18:
	str	r0, [sp, #4]
.LBB3:
	.loc 1 156 12
	ldr	r3, [sp, #4]
	movs	r2, #0
	str	r2, [r3, #20]
	.loc 1 157 7
	ldr	r0, [sp, #4]
	bl	_ZN3Key5resetEv
.LBE3:
	.loc 1 158 1
	ldr	r3, [sp, #4]
	mov	r0, r3
	add	sp, sp, #12
.LCFI19:
	@ sp needed
	ldr	pc, [sp], #4
.LFE9:
	.size	_ZN3KeyC2Ev, .-_ZN3KeyC2Ev
	.global	_ZN3KeyC1Ev
	.thumb_set _ZN3KeyC1Ev,_ZN3KeyC2Ev
	.section	.text._ZN3KeyD2Ev,"ax",%progbits
	.align	1
	.global	_ZN3KeyD2Ev
	.syntax unified
	.thumb
	.thumb_func
	.fpu softvfp
	.type	_ZN3KeyD2Ev, %function
_ZN3KeyD2Ev:
.LFB12:
	.loc 1 160 1
	@ args = 0, pretend = 0, frame = 8
	@ frame_needed = 0, uses_anonymous_args = 0
	push	{lr}
.LCFI20:
	sub	sp, sp, #12
.LCFI21:
	str	r0, [sp, #4]
.LBB4:
	.loc 1 162 5
	ldr	r3, [sp, #4]
	ldr	r3, [r3, #20]
	.loc 1 162 2
	cmp	r3, #0
	beq	.L23
	.loc 1 163 17
	ldr	r3, [sp, #4]
	ldr	r3, [r3, #20]
	mov	r0, r3
	bl	_ZN6thread6removeEi
.L23:
.LBE4:
	.loc 1 164 1
	ldr	r3, [sp, #4]
	mov	r0, r3
	add	sp, sp, #12
.LCFI22:
	@ sp needed
	ldr	pc, [sp], #4
.LFE12:
	.size	_ZN3KeyD2Ev, .-_ZN3KeyD2Ev
	.global	_ZN3KeyD1Ev
	.thumb_set _ZN3KeyD1Ev,_ZN3KeyD2Ev
	.section	.text._ZN3Key5resetEv,"ax",%progbits
	.align	1
	.global	_ZN3Key5resetEv
	.syntax unified
	.thumb
	.thumb_func
	.fpu softvfp
	.type	_ZN3Key5resetEv, %function
_ZN3Key5resetEv:
.LFB14:
	.loc 1 167 1
	@ args = 0, pretend = 0, frame = 8
	@ frame_needed = 0, uses_anonymous_args = 0
	push	{lr}
.LCFI23:
	sub	sp, sp, #12
.LCFI24:
	str	r0, [sp, #4]
	.loc 1 168 5
	ldr	r3, [sp, #4]
	ldr	r3, [r3, #20]
	.loc 1 168 2
	cmp	r3, #0
	beq	.L26
	.loc 1 170 17
	ldr	r3, [sp, #4]
	ldr	r3, [r3, #20]
	mov	r0, r3
	bl	_ZN6thread6removeEi
	.loc 1 171 13
	ldr	r3, [sp, #4]
	movs	r2, #0
	str	r2, [r3, #20]
.L26:
	.loc 1 174 14
	ldr	r3, [sp, #4]
	movs	r2, #0
	str	r2, [r3]
	.loc 1 175 14
	ldr	r3, [sp, #4]
	movs	r2, #0
	str	r2, [r3, #4]
	.loc 1 176 11
	ldr	r3, [sp, #4]
	movs	r2, #0
	str	r2, [r3, #16]
	.loc 1 177 12
	ldr	r3, [sp, #4]
	movs	r2, #50
	str	r2, [r3, #36]
	.loc 1 178 19
	ldr	r3, [sp, #4]
	movs	r2, #50
	str	r2, [r3, #40]
	.loc 1 179 1
	nop
	add	sp, sp, #12
.LCFI25:
	@ sp needed
	ldr	pc, [sp], #4
.LFE14:
	.size	_ZN3Key5resetEv, .-_ZN3Key5resetEv
	.section	.text._ZN3Key7setPushEPFbvEPFvvE,"ax",%progbits
	.align	1
	.global	_ZN3Key7setPushEPFbvEPFvvE
	.syntax unified
	.thumb
	.thumb_func
	.fpu softvfp
	.type	_ZN3Key7setPushEPFbvEPFvvE, %function
_ZN3Key7setPushEPFbvEPFvvE:
.LFB15:
	.loc 1 182 1
	@ args = 0, pretend = 0, frame = 16
	@ frame_needed = 0, uses_anonymous_args = 0
	push	{lr}
.LCFI26:
	sub	sp, sp, #20
.LCFI27:
	str	r0, [sp, #12]
	str	r1, [sp, #8]
	str	r2, [sp, #4]
	.loc 1 183 2
	ldr	r3, [sp, #8]
	cmp	r3, #0
	beq	.L28
	.loc 1 184 15
	ldr	r3, [sp, #12]
	ldr	r2, [sp, #8]
	str	r2, [r3]
	.loc 1 188 2
	ldr	r3, [sp, #4]
	cmp	r3, #0
	beq	.L31
	b	.L34
.L28:
	.loc 1 186 10
	movs	r3, #0
	b	.L30
.L34:
	.loc 1 189 12
	ldr	r3, [sp, #12]
	ldr	r2, [sp, #4]
	str	r2, [r3, #16]
	.loc 1 193 25
	mov	r2, #512
	ldr	r1, [sp, #12]
	ldr	r0, .L36
	bl	_ZN6thread3addEPFvPvES0_i
	mov	r2, r0
	.loc 1 193 12
	ldr	r3, [sp, #12]
	str	r2, [r3, #20]
	.loc 1 195 5
	ldr	r3, [sp, #12]
	ldr	r3, [r3, #20]
	.loc 1 195 2
	cmp	r3, #0
	bge	.L33
	b	.L35
.L31:
	.loc 1 191 10
	movs	r3, #0
	b	.L30
.L35:
	.loc 1 196 10
	movs	r3, #0
	b	.L30
.L33:
	.loc 1 198 10
	movs	r3, #1
.L30:
	.loc 1 199 1
	mov	r0, r3
	add	sp, sp, #20
.LCFI28:
	@ sp needed
	ldr	pc, [sp], #4
.L37:
	.align	2
.L36:
	.word	_ZL18thread_handlerPushPv
.LFE15:
	.size	_ZN3Key7setPushEPFbvEPFvvE, .-_ZN3Key7setPushEPFbvEPFvvE
	.section	.text._ZN3Key17setPushWithRepeatEPFbvEPFvvEj,"ax",%progbits
	.align	1
	.global	_ZN3Key17setPushWithRepeatEPFbvEPFvvEj
	.syntax unified
	.thumb
	.thumb_func
	.fpu softvfp
	.type	_ZN3Key17setPushWithRepeatEPFbvEPFvvEj, %function
_ZN3Key17setPushWithRepeatEPFbvEPFvvEj:
.LFB16:
	.loc 1 202 1
	@ args = 0, pretend = 0, frame = 16
	@ frame_needed = 0, uses_anonymous_args = 0
	push	{lr}
.LCFI29:
	sub	sp, sp, #20
.LCFI30:
	str	r0, [sp, #12]
	str	r1, [sp, #8]
	str	r2, [sp, #4]
	str	r3, [sp]
	.loc 1 203 2
	ldr	r3, [sp, #8]
	cmp	r3, #0
	beq	.L39
	.loc 1 204 15
	ldr	r3, [sp, #12]
	ldr	r2, [sp, #8]
	str	r2, [r3]
	.loc 1 208 2
	ldr	r3, [sp, #4]
	cmp	r3, #0
	beq	.L42
	b	.L45
.L39:
	.loc 1 206 10
	movs	r3, #0
	b	.L41
.L45:
	.loc 1 209 12
	ldr	r3, [sp, #12]
	ldr	r2, [sp, #4]
	str	r2, [r3, #16]
	.loc 1 213 19
	ldr	r3, [sp, #12]
	ldr	r2, [sp]
	str	r2, [r3, #40]
	.loc 1 214 25
	mov	r2, #512
	ldr	r1, [sp, #12]
	ldr	r0, .L47
	bl	_ZN6thread3addEPFvPvES0_i
	mov	r2, r0
	.loc 1 214 12
	ldr	r3, [sp, #12]
	str	r2, [r3, #20]
	.loc 1 216 5
	ldr	r3, [sp, #12]
	ldr	r3, [r3, #20]
	.loc 1 216 2
	cmp	r3, #0
	bge	.L44
	b	.L46
.L42:
	.loc 1 211 10
	movs	r3, #0
	b	.L41
.L46:
	.loc 1 217 10
	movs	r3, #0
	b	.L41
.L44:
	.loc 1 219 10
	movs	r3, #1
.L41:
	.loc 1 220 1
	mov	r0, r3
	add	sp, sp, #20
.LCFI31:
	@ sp needed
	ldr	pc, [sp], #4
.L48:
	.align	2
.L47:
	.word	_ZL28thread_handlerPushWithRepeatPv
.LFE16:
	.size	_ZN3Key17setPushWithRepeatEPFbvEPFvvEj, .-_ZN3Key17setPushWithRepeatEPFbvEPFvvEj
	.section	.text._ZN3Key7setPushEPFbvERb,"ax",%progbits
	.align	1
	.global	_ZN3Key7setPushEPFbvERb
	.syntax unified
	.thumb
	.thumb_func
	.fpu softvfp
	.type	_ZN3Key7setPushEPFbvERb, %function
_ZN3Key7setPushEPFbvERb:
.LFB17:
	.loc 1 223 1
	@ args = 0, pretend = 0, frame = 16
	@ frame_needed = 0, uses_anonymous_args = 0
	push	{lr}
.LCFI32:
	sub	sp, sp, #20
.LCFI33:
	str	r0, [sp, #12]
	str	r1, [sp, #8]
	str	r2, [sp, #4]
	.loc 1 224 2
	ldr	r3, [sp, #8]
	cmp	r3, #0
	beq	.L50
	.loc 1 225 15
	ldr	r3, [sp, #12]
	ldr	r2, [sp, #8]
	str	r2, [r3]
	.loc 1 229 12
	ldr	r3, [sp, #12]
	ldr	r2, [sp, #4]
	str	r2, [r3, #8]
	.loc 1 230 25
	mov	r2, #512
	ldr	r1, [sp, #12]
	ldr	r0, .L55
	bl	_ZN6thread3addEPFvPvES0_i
	mov	r2, r0
	.loc 1 230 12
	ldr	r3, [sp, #12]
	str	r2, [r3, #20]
	.loc 1 232 5
	ldr	r3, [sp, #12]
	ldr	r3, [r3, #20]
	.loc 1 232 2
	cmp	r3, #0
	bge	.L53
	b	.L54
.L50:
	.loc 1 227 10
	movs	r3, #0
	b	.L52
.L54:
	.loc 1 233 10
	movs	r3, #0
	b	.L52
.L53:
	.loc 1 235 10
	movs	r3, #1
.L52:
	.loc 1 236 1
	mov	r0, r3
	add	sp, sp, #20
.LCFI34:
	@ sp needed
	ldr	pc, [sp], #4
.L56:
	.align	2
.L55:
	.word	_ZL31thread_handlerPushUsingBoolFlagPv
.LFE17:
	.size	_ZN3Key7setPushEPFbvERb, .-_ZN3Key7setPushEPFbvERb
	.section	.text._ZN3Key10setCountUpEPFbvERiii,"ax",%progbits
	.align	1
	.global	_ZN3Key10setCountUpEPFbvERiii
	.syntax unified
	.thumb
	.thumb_func
	.fpu softvfp
	.type	_ZN3Key10setCountUpEPFbvERiii, %function
_ZN3Key10setCountUpEPFbvERiii:
.LFB18:
	.loc 1 239 1
	@ args = 4, pretend = 0, frame = 16
	@ frame_needed = 0, uses_anonymous_args = 0
	push	{lr}
.LCFI35:
	sub	sp, sp, #20
.LCFI36:
	str	r0, [sp, #12]
	str	r1, [sp, #8]
	str	r2, [sp, #4]
	str	r3, [sp]
	.loc 1 240 2
	ldr	r3, [sp, #8]
	cmp	r3, #0
	beq	.L58
	.loc 1 241 15
	ldr	r3, [sp, #12]
	ldr	r2, [sp, #8]
	str	r2, [r3]
	.loc 1 245 7
	ldr	r3, [sp, #12]
	ldr	r2, [sp, #4]
	str	r2, [r3, #24]
	.loc 1 246 10
	ldr	r3, [sp, #12]
	ldr	r2, [sp]
	str	r2, [r3, #32]
	.loc 1 247 10
	ldr	r3, [sp, #12]
	ldr	r2, [sp, #24]
	str	r2, [r3, #28]
	.loc 1 248 25
	mov	r2, #512
	ldr	r1, [sp, #12]
	ldr	r0, .L63
	bl	_ZN6thread3addEPFvPvES0_i
	mov	r2, r0
	.loc 1 248 12
	ldr	r3, [sp, #12]
	str	r2, [r3, #20]
	.loc 1 250 5
	ldr	r3, [sp, #12]
	ldr	r3, [r3, #20]
	.loc 1 250 2
	cmp	r3, #0
	bge	.L61
	b	.L62
.L58:
	.loc 1 243 10
	movs	r3, #0
	b	.L60
.L62:
	.loc 1 251 10
	movs	r3, #0
	b	.L60
.L61:
	.loc 1 253 10
	movs	r3, #1
.L60:
	.loc 1 254 1
	mov	r0, r3
	add	sp, sp, #20
.LCFI37:
	@ sp needed
	ldr	pc, [sp], #4
.L64:
	.align	2
.L63:
	.word	_ZL21thread_handlerCountUpPv
.LFE18:
	.size	_ZN3Key10setCountUpEPFbvERiii, .-_ZN3Key10setCountUpEPFbvERiii
	.section	.text._ZN3Key20setCountUpWithRepeatEPFbvERiiijj,"ax",%progbits
	.align	1
	.global	_ZN3Key20setCountUpWithRepeatEPFbvERiiijj
	.syntax unified
	.thumb
	.thumb_func
	.fpu softvfp
	.type	_ZN3Key20setCountUpWithRepeatEPFbvERiiijj, %function
_ZN3Key20setCountUpWithRepeatEPFbvERiiijj:
.LFB19:
	.loc 1 257 1
	@ args = 12, pretend = 0, frame = 16
	@ frame_needed = 0, uses_anonymous_args = 0
	push	{lr}
.LCFI38:
	sub	sp, sp, #20
.LCFI39:
	str	r0, [sp, #12]
	str	r1, [sp, #8]
	str	r2, [sp, #4]
	str	r3, [sp]
	.loc 1 258 2
	ldr	r3, [sp, #8]
	cmp	r3, #0
	beq	.L66
	.loc 1 259 15
	ldr	r3, [sp, #12]
	ldr	r2, [sp, #8]
	str	r2, [r3]
	.loc 1 263 7
	ldr	r3, [sp, #12]
	ldr	r2, [sp, #4]
	str	r2, [r3, #24]
	.loc 1 264 10
	ldr	r3, [sp, #12]
	ldr	r2, [sp]
	str	r2, [r3, #32]
	.loc 1 265 10
	ldr	r3, [sp, #12]
	ldr	r2, [sp, #24]
	str	r2, [r3, #28]
	.loc 1 266 19
	ldr	r3, [sp, #12]
	ldr	r2, [sp, #32]
	str	r2, [r3, #40]
	.loc 1 267 14
	ldr	r3, [sp, #12]
	ldr	r2, [sp, #28]
	str	r2, [r3, #44]
	.loc 1 268 25
	mov	r2, #512
	ldr	r1, [sp, #12]
	ldr	r0, .L71
	bl	_ZN6thread3addEPFvPvES0_i
	mov	r2, r0
	.loc 1 268 12
	ldr	r3, [sp, #12]
	str	r2, [r3, #20]
	.loc 1 270 5
	ldr	r3, [sp, #12]
	ldr	r3, [r3, #20]
	.loc 1 270 2
	cmp	r3, #0
	bge	.L69
	b	.L70
.L66:
	.loc 1 261 10
	movs	r3, #0
	b	.L68
.L70:
	.loc 1 271 10
	movs	r3, #0
	b	.L68
.L69:
	.loc 1 273 10
	movs	r3, #1
.L68:
	.loc 1 274 1
	mov	r0, r3
	add	sp, sp, #20
.LCFI40:
	@ sp needed
	ldr	pc, [sp], #4
.L72:
	.align	2
.L71:
	.word	_ZL31thread_handlerCountUpWithRepeatPv
.LFE19:
	.size	_ZN3Key20setCountUpWithRepeatEPFbvERiiijj, .-_ZN3Key20setCountUpWithRepeatEPFbvERiiijj
	.section	.text._ZN3Key12setCountDownEPFbvERiii,"ax",%progbits
	.align	1
	.global	_ZN3Key12setCountDownEPFbvERiii
	.syntax unified
	.thumb
	.thumb_func
	.fpu softvfp
	.type	_ZN3Key12setCountDownEPFbvERiii, %function
_ZN3Key12setCountDownEPFbvERiii:
.LFB20:
	.loc 1 277 1
	@ args = 4, pretend = 0, frame = 16
	@ frame_needed = 0, uses_anonymous_args = 0
	push	{lr}
.LCFI41:
	sub	sp, sp, #20
.LCFI42:
	str	r0, [sp, #12]
	str	r1, [sp, #8]
	str	r2, [sp, #4]
	str	r3, [sp]
	.loc 1 278 2
	ldr	r3, [sp, #8]
	cmp	r3, #0
	beq	.L74
	.loc 1 279 15
	ldr	r3, [sp, #12]
	ldr	r2, [sp, #8]
	str	r2, [r3]
	.loc 1 283 7
	ldr	r3, [sp, #12]
	ldr	r2, [sp, #4]
	str	r2, [r3, #24]
	.loc 1 284 10
	ldr	r3, [sp, #12]
	ldr	r2, [sp]
	str	r2, [r3, #32]
	.loc 1 285 10
	ldr	r3, [sp, #12]
	ldr	r2, [sp, #24]
	str	r2, [r3, #28]
	.loc 1 286 25
	mov	r2, #512
	ldr	r1, [sp, #12]
	ldr	r0, .L79
	bl	_ZN6thread3addEPFvPvES0_i
	mov	r2, r0
	.loc 1 286 12
	ldr	r3, [sp, #12]
	str	r2, [r3, #20]
	.loc 1 288 5
	ldr	r3, [sp, #12]
	ldr	r3, [r3, #20]
	.loc 1 288 2
	cmp	r3, #0
	bge	.L77
	b	.L78
.L74:
	.loc 1 281 10
	movs	r3, #0
	b	.L76
.L78:
	.loc 1 289 10
	movs	r3, #0
	b	.L76
.L77:
	.loc 1 291 10
	movs	r3, #1
.L76:
	.loc 1 292 1
	mov	r0, r3
	add	sp, sp, #20
.LCFI43:
	@ sp needed
	ldr	pc, [sp], #4
.L80:
	.align	2
.L79:
	.word	_ZL23thread_handlerCountDownPv
.LFE20:
	.size	_ZN3Key12setCountDownEPFbvERiii, .-_ZN3Key12setCountDownEPFbvERiii
	.section	.text._ZN3Key22setCountDownWithRepeatEPFbvERiiijj,"ax",%progbits
	.align	1
	.global	_ZN3Key22setCountDownWithRepeatEPFbvERiiijj
	.syntax unified
	.thumb
	.thumb_func
	.fpu softvfp
	.type	_ZN3Key22setCountDownWithRepeatEPFbvERiiijj, %function
_ZN3Key22setCountDownWithRepeatEPFbvERiiijj:
.LFB21:
	.loc 1 295 1
	@ args = 12, pretend = 0, frame = 16
	@ frame_needed = 0, uses_anonymous_args = 0
	push	{lr}
.LCFI44:
	sub	sp, sp, #20
.LCFI45:
	str	r0, [sp, #12]
	str	r1, [sp, #8]
	str	r2, [sp, #4]
	str	r3, [sp]
	.loc 1 296 2
	ldr	r3, [sp, #8]
	cmp	r3, #0
	beq	.L82
	.loc 1 297 15
	ldr	r3, [sp, #12]
	ldr	r2, [sp, #8]
	str	r2, [r3]
	.loc 1 301 7
	ldr	r3, [sp, #12]
	ldr	r2, [sp, #4]
	str	r2, [r3, #24]
	.loc 1 302 10
	ldr	r3, [sp, #12]
	ldr	r2, [sp]
	str	r2, [r3, #32]
	.loc 1 303 10
	ldr	r3, [sp, #12]
	ldr	r2, [sp, #24]
	str	r2, [r3, #28]
	.loc 1 304 19
	ldr	r3, [sp, #12]
	ldr	r2, [sp, #32]
	str	r2, [r3, #40]
	.loc 1 305 14
	ldr	r3, [sp, #12]
	ldr	r2, [sp, #28]
	str	r2, [r3, #44]
	.loc 1 306 25
	mov	r2, #512
	ldr	r1, [sp, #12]
	ldr	r0, .L87
	bl	_ZN6thread3addEPFvPvES0_i
	mov	r2, r0
	.loc 1 306 12
	ldr	r3, [sp, #12]
	str	r2, [r3, #20]
	.loc 1 308 5
	ldr	r3, [sp, #12]
	ldr	r3, [r3, #20]
	.loc 1 308 2
	cmp	r3, #0
	bge	.L85
	b	.L86
.L82:
	.loc 1 299 10
	movs	r3, #0
	b	.L84
.L86:
	.loc 1 309 10
	movs	r3, #0
	b	.L84
.L85:
	.loc 1 311 10
	movs	r3, #1
.L84:
	.loc 1 312 1
	mov	r0, r3
	add	sp, sp, #20
.LCFI46:
	@ sp needed
	ldr	pc, [sp], #4
.L88:
	.align	2
.L87:
	.word	_ZL33thread_handlerCountDownWithRepeatPv
.LFE21:
	.size	_ZN3Key22setCountDownWithRepeatEPFbvERiiijj, .-_ZN3Key22setCountDownWithRepeatEPFbvERiiijj
	.section	.text._ZN3Key18delayForRepeatTimeEv,"ax",%progbits
	.align	1
	.global	_ZN3Key18delayForRepeatTimeEv
	.syntax unified
	.thumb
	.thumb_func
	.fpu softvfp
	.type	_ZN3Key18delayForRepeatTimeEv, %function
_ZN3Key18delayForRepeatTimeEv:
.LFB22:
	.loc 1 315 1
	@ args = 0, pretend = 0, frame = 8
	@ frame_needed = 0, uses_anonymous_args = 0
	push	{lr}
.LCFI47:
	sub	sp, sp, #12
.LCFI48:
	str	r0, [sp, #4]
	.loc 1 316 5
	ldr	r3, [sp, #4]
	ldr	r3, [r3, #40]
	.loc 1 316 2
	cmp	r3, #0
	beq	.L91
	.loc 1 317 16
	ldr	r3, [sp, #4]
	ldr	r3, [r3, #40]
	mov	r0, r3
	bl	_ZN6thread5delayEj
.L91:
	.loc 1 318 1
	nop
	add	sp, sp, #12
.LCFI49:
	@ sp needed
	ldr	pc, [sp], #4
.LFE22:
	.size	_ZN3Key18delayForRepeatTimeEv, .-_ZN3Key18delayForRepeatTimeEv
	.section	.text._ZN3Key8isDetectEv,"ax",%progbits
	.align	1
	.global	_ZN3Key8isDetectEv
	.syntax unified
	.thumb
	.thumb_func
	.fpu softvfp
	.type	_ZN3Key8isDetectEv, %function
_ZN3Key8isDetectEv:
.LFB23:
	.loc 1 321 1
	@ args = 0, pretend = 0, frame = 8
	@ frame_needed = 0, uses_anonymous_args = 0
	push	{lr}
.LCFI50:
	sub	sp, sp, #12
.LCFI51:
	str	r0, [sp, #4]
	.loc 1 322 19
	ldr	r3, [sp, #4]
	ldr	r3, [r3]
	.loc 1 322 20
	blx	r3
.LVL0:
	mov	r3, r0
	.loc 1 323 1
	mov	r0, r3
	add	sp, sp, #12
.LCFI52:
	@ sp needed
	ldr	pc, [sp], #4
.LFE23:
	.size	_ZN3Key8isDetectEv, .-_ZN3Key8isDetectEv
	.section	.text._ZN3Key17waitWhileDeadtimeEv,"ax",%progbits
	.align	1
	.global	_ZN3Key17waitWhileDeadtimeEv
	.syntax unified
	.thumb
	.thumb_func
	.fpu softvfp
	.type	_ZN3Key17waitWhileDeadtimeEv, %function
_ZN3Key17waitWhileDeadtimeEv:
.LFB24:
	.loc 1 326 1
	@ args = 0, pretend = 0, frame = 8
	@ frame_needed = 0, uses_anonymous_args = 0
	push	{lr}
.LCFI53:
	sub	sp, sp, #12
.LCFI54:
	str	r0, [sp, #4]
	.loc 1 327 5
	ldr	r3, [sp, #4]
	ldr	r3, [r3, #36]
	.loc 1 327 2
	cmp	r3, #0
	beq	.L96
	.loc 1 328 16
	ldr	r3, [sp, #4]
	ldr	r3, [r3, #36]
	mov	r0, r3
	bl	_ZN6thread5delayEj
.L96:
	.loc 1 329 1
	nop
	add	sp, sp, #12
.LCFI55:
	@ sp needed
	ldr	pc, [sp], #4
.LFE24:
	.size	_ZN3Key17waitWhileDeadtimeEv, .-_ZN3Key17waitWhileDeadtimeEv
	.section	.text._ZN3Key6handleEv,"ax",%progbits
	.align	1
	.global	_ZN3Key6handleEv
	.syntax unified
	.thumb
	.thumb_func
	.fpu softvfp
	.type	_ZN3Key6handleEv, %function
_ZN3Key6handleEv:
.LFB25:
	.loc 1 332 1
	@ args = 0, pretend = 0, frame = 8
	@ frame_needed = 0, uses_anonymous_args = 0
	push	{lr}
.LCFI56:
	sub	sp, sp, #12
.LCFI57:
	str	r0, [sp, #4]
	.loc 1 333 2
	ldr	r3, [sp, #4]
	ldr	r3, [r3, #16]
	.loc 1 333 10
	blx	r3
.LVL1:
	.loc 1 334 1
	nop
	add	sp, sp, #12
.LCFI58:
	@ sp needed
	ldr	pc, [sp], #4
.LFE25:
	.size	_ZN3Key6handleEv, .-_ZN3Key6handleEv
	.section	.text._ZN3Key8setCycleEb,"ax",%progbits
	.align	1
	.global	_ZN3Key8setCycleEb
	.syntax unified
	.thumb
	.thumb_func
	.fpu softvfp
	.type	_ZN3Key8setCycleEb, %function
_ZN3Key8setCycleEb:
.LFB26:
	.loc 1 337 1
	@ args = 0, pretend = 0, frame = 8
	@ frame_needed = 0, uses_anonymous_args = 0
	@ link register save eliminated.
	sub	sp, sp, #8
.LCFI59:
	str	r0, [sp, #4]
	mov	r3, r1
	strb	r3, [sp, #3]
	.loc 1 338 13
	ldr	r3, [sp, #4]
	ldrb	r2, [sp, #3]
	strb	r2, [r3, #12]
	.loc 1 339 1
	nop
	add	sp, sp, #8
.LCFI60:
	@ sp needed
	bx	lr
.LFE26:
	.size	_ZN3Key8setCycleEb, .-_ZN3Key8setCycleEb
	.section	.text._ZN3Key7setFlagEv,"ax",%progbits
	.align	1
	.global	_ZN3Key7setFlagEv
	.syntax unified
	.thumb
	.thumb_func
	.fpu softvfp
	.type	_ZN3Key7setFlagEv, %function
_ZN3Key7setFlagEv:
.LFB27:
	.loc 1 342 1
	@ args = 0, pretend = 0, frame = 8
	@ frame_needed = 0, uses_anonymous_args = 0
	@ link register save eliminated.
	sub	sp, sp, #8
.LCFI61:
	str	r0, [sp, #4]
	.loc 1 343 5
	ldr	r3, [sp, #4]
	ldr	r3, [r3, #8]
	.loc 1 343 2
	cmp	r3, #0
	beq	.L101
	.loc 1 344 4
	ldr	r3, [sp, #4]
	ldr	r3, [r3, #8]
	.loc 1 344 14
	movs	r2, #1
	strb	r2, [r3]
.L101:
	.loc 1 345 1
	nop
	add	sp, sp, #8
.LCFI62:
	@ sp needed
	bx	lr
.LFE27:
	.size	_ZN3Key7setFlagEv, .-_ZN3Key7setFlagEv
	.section	.text._ZN3Key7countupEv,"ax",%progbits
	.align	1
	.global	_ZN3Key7countupEv
	.syntax unified
	.thumb
	.thumb_func
	.fpu softvfp
	.type	_ZN3Key7countupEv, %function
_ZN3Key7countupEv:
.LFB28:
	.loc 1 348 1
	@ args = 0, pretend = 0, frame = 8
	@ frame_needed = 0, uses_anonymous_args = 0
	@ link register save eliminated.
	sub	sp, sp, #8
.LCFI63:
	str	r0, [sp, #4]
	.loc 1 349 5
	ldr	r3, [sp, #4]
	ldrb	r3, [r3, #12]	@ zero_extendqisi2
	.loc 1 349 2
	cmp	r3, #0
	beq	.L103
	.loc 1 351 4
	ldr	r3, [sp, #4]
	ldr	r3, [r3, #24]
	.loc 1 351 9
	ldr	r2, [r3]
	.loc 1 351 4
	ldr	r3, [sp, #4]
	ldr	r3, [r3, #24]
	.loc 1 351 9
	adds	r2, r2, #1
	str	r2, [r3]
	.loc 1 352 7
	ldr	r3, [sp, #4]
	ldr	r3, [r3, #24]
	.loc 1 352 6
	ldr	r2, [r3]
	.loc 1 352 14
	ldr	r3, [sp, #4]
	ldr	r3, [r3, #28]
	.loc 1 352 3
	cmp	r2, r3
	ble	.L105
	.loc 1 353 5
	ldr	r3, [sp, #4]
	ldr	r3, [r3, #24]
	.loc 1 353 12
	ldr	r2, [sp, #4]
	ldr	r2, [r2, #32]
	.loc 1 353 10
	str	r2, [r3]
	.loc 1 360 1
	b	.L105
.L103:
	.loc 1 357 7
	ldr	r3, [sp, #4]
	ldr	r3, [r3, #24]
	.loc 1 357 6
	ldr	r2, [r3]
	.loc 1 357 14
	ldr	r3, [sp, #4]
	ldr	r3, [r3, #28]
	.loc 1 357 3
	cmp	r2, r3
	bge	.L105
	.loc 1 358 5
	ldr	r3, [sp, #4]
	ldr	r3, [r3, #24]
	.loc 1 358 10
	ldr	r2, [r3]
	.loc 1 358 5
	ldr	r3, [sp, #4]
	ldr	r3, [r3, #24]
	.loc 1 358 10
	adds	r2, r2, #1
	str	r2, [r3]
.L105:
	.loc 1 360 1
	nop
	add	sp, sp, #8
.LCFI64:
	@ sp needed
	bx	lr
.LFE28:
	.size	_ZN3Key7countupEv, .-_ZN3Key7countupEv
	.section	.text._ZN3Key9countdownEv,"ax",%progbits
	.align	1
	.global	_ZN3Key9countdownEv
	.syntax unified
	.thumb
	.thumb_func
	.fpu softvfp
	.type	_ZN3Key9countdownEv, %function
_ZN3Key9countdownEv:
.LFB29:
	.loc 1 363 1
	@ args = 0, pretend = 0, frame = 8
	@ frame_needed = 0, uses_anonymous_args = 0
	@ link register save eliminated.
	sub	sp, sp, #8
.LCFI65:
	str	r0, [sp, #4]
	.loc 1 364 5
	ldr	r3, [sp, #4]
	ldrb	r3, [r3, #12]	@ zero_extendqisi2
	.loc 1 364 2
	cmp	r3, #0
	beq	.L107
	.loc 1 366 4
	ldr	r3, [sp, #4]
	ldr	r3, [r3, #24]
	.loc 1 366 9
	ldr	r2, [r3]
	.loc 1 366 4
	ldr	r3, [sp, #4]
	ldr	r3, [r3, #24]
	.loc 1 366 9
	subs	r2, r2, #1
	str	r2, [r3]
	.loc 1 367 7
	ldr	r3, [sp, #4]
	ldr	r3, [r3, #24]
	.loc 1 367 6
	ldr	r2, [r3]
	.loc 1 367 14
	ldr	r3, [sp, #4]
	ldr	r3, [r3, #32]
	.loc 1 367 3
	cmp	r2, r3
	bge	.L109
	.loc 1 368 5
	ldr	r3, [sp, #4]
	ldr	r3, [r3, #24]
	.loc 1 368 12
	ldr	r2, [sp, #4]
	ldr	r2, [r2, #28]
	.loc 1 368 10
	str	r2, [r3]
	.loc 1 375 1
	b	.L109
.L107:
	.loc 1 372 7
	ldr	r3, [sp, #4]
	ldr	r3, [r3, #24]
	.loc 1 372 6
	ldr	r2, [r3]
	.loc 1 372 14
	ldr	r3, [sp, #4]
	ldr	r3, [r3, #32]
	.loc 1 372 3
	cmp	r2, r3
	ble	.L109
	.loc 1 373 5
	ldr	r3, [sp, #4]
	ldr	r3, [r3, #24]
	.loc 1 373 10
	ldr	r2, [r3]
	.loc 1 373 5
	ldr	r3, [sp, #4]
	ldr	r3, [r3, #24]
	.loc 1 373 10
	subs	r2, r2, #1
	str	r2, [r3]
.L109:
	.loc 1 375 1
	nop
	add	sp, sp, #8
.LCFI66:
	@ sp needed
	bx	lr
.LFE29:
	.size	_ZN3Key9countdownEv, .-_ZN3Key9countdownEv
	.section	.text._ZN3Key13getAcceptTimeEv,"ax",%progbits
	.align	1
	.global	_ZN3Key13getAcceptTimeEv
	.syntax unified
	.thumb
	.thumb_func
	.fpu softvfp
	.type	_ZN3Key13getAcceptTimeEv, %function
_ZN3Key13getAcceptTimeEv:
.LFB30:
	.loc 1 378 1
	@ args = 0, pretend = 0, frame = 8
	@ frame_needed = 0, uses_anonymous_args = 0
	@ link register save eliminated.
	sub	sp, sp, #8
.LCFI67:
	str	r0, [sp, #4]
	.loc 1 379 9
	ldr	r3, [sp, #4]
	ldr	r3, [r3, #44]
	.loc 1 380 1
	mov	r0, r3
	add	sp, sp, #8
.LCFI68:
	@ sp needed
	bx	lr
.LFE30:
	.size	_ZN3Key13getAcceptTimeEv, .-_ZN3Key13getAcceptTimeEv
	.section	.text._ZN3Key11getDeadTimeEv,"ax",%progbits
	.align	1
	.global	_ZN3Key11getDeadTimeEv
	.syntax unified
	.thumb
	.thumb_func
	.fpu softvfp
	.type	_ZN3Key11getDeadTimeEv, %function
_ZN3Key11getDeadTimeEv:
.LFB31:
	.loc 1 383 1
	@ args = 0, pretend = 0, frame = 8
	@ frame_needed = 0, uses_anonymous_args = 0
	@ link register save eliminated.
	sub	sp, sp, #8
.LCFI69:
	str	r0, [sp, #4]
	.loc 1 384 9
	ldr	r3, [sp, #4]
	ldr	r3, [r3, #36]
	.loc 1 385 1
	mov	r0, r3
	add	sp, sp, #8
.LCFI70:
	@ sp needed
	bx	lr
.LFE31:
	.size	_ZN3Key11getDeadTimeEv, .-_ZN3Key11getDeadTimeEv
	.section	.text._ZN3Key11setDeadTimeEj,"ax",%progbits
	.align	1
	.global	_ZN3Key11setDeadTimeEj
	.syntax unified
	.thumb
	.thumb_func
	.fpu softvfp
	.type	_ZN3Key11setDeadTimeEj, %function
_ZN3Key11setDeadTimeEj:
.LFB32:
	.loc 1 388 1
	@ args = 0, pretend = 0, frame = 8
	@ frame_needed = 0, uses_anonymous_args = 0
	@ link register save eliminated.
	sub	sp, sp, #8
.LCFI71:
	str	r0, [sp, #4]
	str	r1, [sp]
	.loc 1 389 12
	ldr	r3, [sp, #4]
	ldr	r2, [sp]
	str	r2, [r3, #36]
	.loc 1 390 1
	nop
	add	sp, sp, #8
.LCFI72:
	@ sp needed
	bx	lr
.LFE32:
	.size	_ZN3Key11setDeadTimeEj, .-_ZN3Key11setDeadTimeEj
	.section	.text._ZL18thread_handlerPushPv,"ax",%progbits
	.align	1
	.syntax unified
	.thumb
	.thumb_func
	.fpu softvfp
	.type	_ZL18thread_handlerPushPv, %function
_ZL18thread_handlerPushPv:
.LFB33:
	.loc 1 393 1
	@ args = 0, pretend = 0, frame = 24
	@ frame_needed = 0, uses_anonymous_args = 0
	push	{r4, r5, r6, r7, lr}
.LCFI73:
	sub	sp, sp, #28
.LCFI74:
	str	r0, [sp, #4]
	.loc 1 394 7
	ldr	r3, [sp, #4]
	str	r3, [sp, #20]
.L117:
	.loc 1 397 21
	ldr	r0, [sp, #20]
	bl	_ZN3Key8isDetectEv
	mov	r3, r0
	cmp	r3, #0
	beq	.L124
	.loc 1 398 16
	bl	yield
	.loc 1 397 2
	b	.L117
.L124:
	.loc 1 402 1
	nop
.L116:
	.loc 1 403 22
	ldr	r0, [sp, #20]
	bl	_ZN3Key8isDetectEv
	mov	r3, r0
	.loc 1 403 25
	cmp	r3, #0
	ite	eq
	moveq	r3, #1
	movne	r3, #0
	uxtb	r3, r3
	cmp	r3, #0
	beq	.L118
	.loc 1 404 17
	bl	yield
	.loc 1 403 3
	b	.L116
.L118:
	.loc 1 406 36
	bl	_ZN4time14getRunningMsecEv
	mov	r4, r0
	mov	r5, r1
	.loc 1 406 57
	ldr	r0, [sp, #20]
	bl	_ZN3Key11getDeadTimeEv
	mov	r3, r0
	mov	r2, r3
	mov	r3, #0
	.loc 1 406 14
	adds	r6, r4, r2
	adc	r7, r5, r3
	strd	r6, [sp, #8]
.L121:
	.loc 1 408 43
	bl	_ZN4time14getRunningMsecEv
	.loc 1 408 20
	ldrd	r2, [sp, #8]
	cmp	r3, r1
	it	eq
	cmpeq	r2, r0
	ite	cs
	movcs	r3, #1
	movcc	r3, #0
	uxtb	r3, r3
	cmp	r3, #0
	beq	.L119
	.loc 1 410 17
	bl	yield
	.loc 1 411 20
	ldr	r0, [sp, #20]
	bl	_ZN3Key8isDetectEv
	mov	r3, r0
	.loc 1 411 23
	cmp	r3, #0
	ite	eq
	moveq	r3, #1
	movne	r3, #0
	uxtb	r3, r3
	.loc 1 411 4
	cmp	r3, #0
	beq	.L121
	.loc 1 412 10
	b	.L116
.L119:
	.loc 1 415 14
	ldr	r0, [sp, #20]
	bl	_ZN3Key6handleEv
.L123:
	.loc 1 417 22
	ldr	r0, [sp, #20]
	bl	_ZN3Key8isDetectEv
	mov	r3, r0
	.loc 1 417 25
	cmp	r3, #1
	ite	eq
	moveq	r3, #1
	movne	r3, #0
	uxtb	r3, r3
	cmp	r3, #0
	beq	.L124
	.loc 1 418 17
	bl	yield
	.loc 1 417 3
	b	.L123
.LFE33:
	.size	_ZL18thread_handlerPushPv, .-_ZL18thread_handlerPushPv
	.section	.text._ZL28thread_handlerPushWithRepeatPv,"ax",%progbits
	.align	1
	.syntax unified
	.thumb
	.thumb_func
	.fpu softvfp
	.type	_ZL28thread_handlerPushWithRepeatPv, %function
_ZL28thread_handlerPushWithRepeatPv:
.LFB34:
	.loc 1 423 1
	@ args = 0, pretend = 0, frame = 24
	@ frame_needed = 0, uses_anonymous_args = 0
	push	{r4, r5, r6, r7, lr}
.LCFI75:
	sub	sp, sp, #28
.LCFI76:
	str	r0, [sp, #4]
	.loc 1 424 7
	ldr	r3, [sp, #4]
	str	r3, [sp, #20]
.L127:
	.loc 1 427 21
	ldr	r0, [sp, #20]
	bl	_ZN3Key8isDetectEv
	mov	r3, r0
	cmp	r3, #0
	beq	.L133
	.loc 1 428 16
	bl	yield
	.loc 1 427 2
	b	.L127
.L133:
	.loc 1 432 1
	nop
.L126:
	.loc 1 433 22
	ldr	r0, [sp, #20]
	bl	_ZN3Key8isDetectEv
	mov	r3, r0
	.loc 1 433 25
	cmp	r3, #0
	ite	eq
	moveq	r3, #1
	movne	r3, #0
	uxtb	r3, r3
	cmp	r3, #0
	beq	.L128
	.loc 1 434 17
	bl	yield
	.loc 1 433 3
	b	.L126
.L128:
	.loc 1 436 36
	bl	_ZN4time14getRunningMsecEv
	mov	r4, r0
	mov	r5, r1
	.loc 1 436 57
	ldr	r0, [sp, #20]
	bl	_ZN3Key11getDeadTimeEv
	mov	r3, r0
	mov	r2, r3
	mov	r3, #0
	.loc 1 436 14
	adds	r6, r4, r2
	adc	r7, r5, r3
	strd	r6, [sp, #8]
.L131:
	.loc 1 438 43
	bl	_ZN4time14getRunningMsecEv
	.loc 1 438 20
	ldrd	r2, [sp, #8]
	cmp	r3, r1
	it	eq
	cmpeq	r2, r0
	ite	cs
	movcs	r3, #1
	movcc	r3, #0
	uxtb	r3, r3
	cmp	r3, #0
	beq	.L129
	.loc 1 440 17
	bl	yield
	.loc 1 441 20
	ldr	r0, [sp, #20]
	bl	_ZN3Key8isDetectEv
	mov	r3, r0
	.loc 1 441 23
	cmp	r3, #0
	ite	eq
	moveq	r3, #1
	movne	r3, #0
	uxtb	r3, r3
	.loc 1 441 4
	cmp	r3, #0
	beq	.L131
	.loc 1 442 10
	b	.L126
.L129:
	.loc 1 445 22
	ldr	r0, [sp, #20]
	bl	_ZN3Key8isDetectEv
	mov	r3, r0
	cmp	r3, #0
	beq	.L133
	.loc 1 447 15
	ldr	r0, [sp, #20]
	bl	_ZN3Key6handleEv
	.loc 1 448 27
	ldr	r0, [sp, #20]
	bl	_ZN3Key18delayForRepeatTimeEv
	.loc 1 445 3
	b	.L129
.LFE34:
	.size	_ZL28thread_handlerPushWithRepeatPv, .-_ZL28thread_handlerPushWithRepeatPv
	.section	.text._ZL31thread_handlerPushUsingBoolFlagPv,"ax",%progbits
	.align	1
	.syntax unified
	.thumb
	.thumb_func
	.fpu softvfp
	.type	_ZL31thread_handlerPushUsingBoolFlagPv, %function
_ZL31thread_handlerPushUsingBoolFlagPv:
.LFB35:
	.loc 1 454 1
	@ args = 0, pretend = 0, frame = 24
	@ frame_needed = 0, uses_anonymous_args = 0
	push	{r4, r5, r6, r7, lr}
.LCFI77:
	sub	sp, sp, #28
.LCFI78:
	str	r0, [sp, #4]
	.loc 1 455 7
	ldr	r3, [sp, #4]
	str	r3, [sp, #20]
.L136:
	.loc 1 458 21
	ldr	r0, [sp, #20]
	bl	_ZN3Key8isDetectEv
	mov	r3, r0
	cmp	r3, #0
	beq	.L143
	.loc 1 459 16
	bl	yield
	.loc 1 458 2
	b	.L136
.L143:
	.loc 1 463 1
	nop
.L135:
	.loc 1 464 22
	ldr	r0, [sp, #20]
	bl	_ZN3Key8isDetectEv
	mov	r3, r0
	.loc 1 464 25
	cmp	r3, #0
	ite	eq
	moveq	r3, #1
	movne	r3, #0
	uxtb	r3, r3
	cmp	r3, #0
	beq	.L137
	.loc 1 465 17
	bl	yield
	.loc 1 464 3
	b	.L135
.L137:
	.loc 1 467 36
	bl	_ZN4time14getRunningMsecEv
	mov	r4, r0
	mov	r5, r1
	.loc 1 467 57
	ldr	r0, [sp, #20]
	bl	_ZN3Key11getDeadTimeEv
	mov	r3, r0
	mov	r2, r3
	mov	r3, #0
	.loc 1 467 14
	adds	r6, r4, r2
	adc	r7, r5, r3
	strd	r6, [sp, #8]
.L140:
	.loc 1 469 43
	bl	_ZN4time14getRunningMsecEv
	.loc 1 469 20
	ldrd	r2, [sp, #8]
	cmp	r3, r1
	it	eq
	cmpeq	r2, r0
	ite	cs
	movcs	r3, #1
	movcc	r3, #0
	uxtb	r3, r3
	cmp	r3, #0
	beq	.L138
	.loc 1 471 17
	bl	yield
	.loc 1 472 20
	ldr	r0, [sp, #20]
	bl	_ZN3Key8isDetectEv
	mov	r3, r0
	.loc 1 472 23
	cmp	r3, #0
	ite	eq
	moveq	r3, #1
	movne	r3, #0
	uxtb	r3, r3
	.loc 1 472 4
	cmp	r3, #0
	beq	.L140
	.loc 1 473 10
	b	.L135
.L138:
	.loc 1 476 15
	ldr	r0, [sp, #20]
	bl	_ZN3Key7setFlagEv
.L142:
	.loc 1 478 22
	ldr	r0, [sp, #20]
	bl	_ZN3Key8isDetectEv
	mov	r3, r0
	.loc 1 478 25
	cmp	r3, #1
	ite	eq
	moveq	r3, #1
	movne	r3, #0
	uxtb	r3, r3
	cmp	r3, #0
	beq	.L143
	.loc 1 479 17
	bl	yield
	.loc 1 478 3
	b	.L142
.LFE35:
	.size	_ZL31thread_handlerPushUsingBoolFlagPv, .-_ZL31thread_handlerPushUsingBoolFlagPv
	.section	.text._ZL21thread_handlerCountUpPv,"ax",%progbits
	.align	1
	.syntax unified
	.thumb
	.thumb_func
	.fpu softvfp
	.type	_ZL21thread_handlerCountUpPv, %function
_ZL21thread_handlerCountUpPv:
.LFB36:
	.loc 1 484 1
	@ args = 0, pretend = 0, frame = 24
	@ frame_needed = 0, uses_anonymous_args = 0
	push	{r4, r5, r6, r7, lr}
.LCFI79:
	sub	sp, sp, #28
.LCFI80:
	str	r0, [sp, #4]
	.loc 1 485 7
	ldr	r3, [sp, #4]
	str	r3, [sp, #20]
.L146:
	.loc 1 488 21
	ldr	r0, [sp, #20]
	bl	_ZN3Key8isDetectEv
	mov	r3, r0
	cmp	r3, #0
	beq	.L153
	.loc 1 489 16
	bl	yield
	.loc 1 488 2
	b	.L146
.L153:
	.loc 1 493 1
	nop
.L145:
	.loc 1 494 22
	ldr	r0, [sp, #20]
	bl	_ZN3Key8isDetectEv
	mov	r3, r0
	.loc 1 494 25
	cmp	r3, #0
	ite	eq
	moveq	r3, #1
	movne	r3, #0
	uxtb	r3, r3
	cmp	r3, #0
	beq	.L147
	.loc 1 495 17
	bl	yield
	.loc 1 494 3
	b	.L145
.L147:
	.loc 1 497 36
	bl	_ZN4time14getRunningMsecEv
	mov	r4, r0
	mov	r5, r1
	.loc 1 497 57
	ldr	r0, [sp, #20]
	bl	_ZN3Key11getDeadTimeEv
	mov	r3, r0
	mov	r2, r3
	mov	r3, #0
	.loc 1 497 14
	adds	r6, r4, r2
	adc	r7, r5, r3
	strd	r6, [sp, #8]
.L150:
	.loc 1 499 43
	bl	_ZN4time14getRunningMsecEv
	.loc 1 499 20
	ldrd	r2, [sp, #8]
	cmp	r3, r1
	it	eq
	cmpeq	r2, r0
	ite	cs
	movcs	r3, #1
	movcc	r3, #0
	uxtb	r3, r3
	cmp	r3, #0
	beq	.L148
	.loc 1 501 17
	bl	yield
	.loc 1 502 20
	ldr	r0, [sp, #20]
	bl	_ZN3Key8isDetectEv
	mov	r3, r0
	.loc 1 502 23
	cmp	r3, #0
	ite	eq
	moveq	r3, #1
	movne	r3, #0
	uxtb	r3, r3
	.loc 1 502 4
	cmp	r3, #0
	beq	.L150
	.loc 1 503 10
	b	.L145
.L148:
	.loc 1 506 15
	ldr	r0, [sp, #20]
	bl	_ZN3Key7countupEv
.L152:
	.loc 1 508 22
	ldr	r0, [sp, #20]
	bl	_ZN3Key8isDetectEv
	mov	r3, r0
	.loc 1 508 25
	cmp	r3, #1
	ite	eq
	moveq	r3, #1
	movne	r3, #0
	uxtb	r3, r3
	cmp	r3, #0
	beq	.L153
	.loc 1 509 17
	bl	yield
	.loc 1 508 3
	b	.L152
.LFE36:
	.size	_ZL21thread_handlerCountUpPv, .-_ZL21thread_handlerCountUpPv
	.section	.text._ZL31thread_handlerCountUpWithRepeatPv,"ax",%progbits
	.align	1
	.syntax unified
	.thumb
	.thumb_func
	.fpu softvfp
	.type	_ZL31thread_handlerCountUpWithRepeatPv, %function
_ZL31thread_handlerCountUpWithRepeatPv:
.LFB37:
	.loc 1 514 1
	@ args = 0, pretend = 0, frame = 40
	@ frame_needed = 0, uses_anonymous_args = 0
	push	{r4, r5, r6, r7, lr}
.LCFI81:
	sub	sp, sp, #44
.LCFI82:
	str	r0, [sp, #4]
	.loc 1 515 7
	ldr	r3, [sp, #4]
	str	r3, [sp, #36]
	.loc 1 516 46
	ldr	r0, [sp, #36]
	bl	_ZN3Key13getAcceptTimeEv
	str	r0, [sp, #32]
	.loc 1 516 77
	ldr	r0, [sp, #36]
	bl	_ZN3Key11getDeadTimeEv
	str	r0, [sp, #28]
.L156:
	.loc 1 519 21
	ldr	r0, [sp, #36]
	bl	_ZN3Key8isDetectEv
	mov	r3, r0
	cmp	r3, #0
	beq	.L163
	.loc 1 520 16
	bl	yield
	.loc 1 519 2
	b	.L156
.L163:
	.loc 1 524 1
	nop
.L155:
	.loc 1 525 22
	ldr	r0, [sp, #36]
	bl	_ZN3Key8isDetectEv
	mov	r3, r0
	.loc 1 525 25
	cmp	r3, #0
	ite	eq
	moveq	r3, #1
	movne	r3, #0
	uxtb	r3, r3
	cmp	r3, #0
	beq	.L157
	.loc 1 526 17
	bl	yield
	.loc 1 525 3
	b	.L155
.L157:
	.loc 1 528 31
	bl	_ZN4time14getRunningMsecEv
	strd	r0, [sp, #16]
.L161:
	.loc 1 531 17
	bl	yield
	.loc 1 532 31
	bl	_ZN4time14getRunningMsecEv
	strd	r0, [sp, #8]
	.loc 1 533 20
	ldr	r0, [sp, #36]
	bl	_ZN3Key8isDetectEv
	mov	r3, r0
	.loc 1 533 23
	cmp	r3, #0
	ite	eq
	moveq	r3, #1
	movne	r3, #0
	uxtb	r3, r3
	.loc 1 533 4
	cmp	r3, #0
	beq	.L158
	.loc 1 535 23
	ldr	r3, [sp, #28]
	mov	r0, r3
	mov	r1, #0
	.loc 1 535 21
	ldrd	r2, [sp, #16]
	adds	r4, r0, r2
	adc	r5, r1, r3
	.loc 1 535 5
	ldrd	r2, [sp, #8]
	cmp	r5, r3
	it	eq
	cmpeq	r4, r2
	bcs	.L155
	.loc 1 536 18
	ldr	r0, [sp, #36]
	bl	_ZN3Key7countupEv
	.loc 1 537 10
	b	.L155
.L158:
	.loc 1 539 18
	ldr	r3, [sp, #32]
	mov	r0, r3
	mov	r1, #0
	.loc 1 539 16
	ldrd	r2, [sp, #16]
	adds	r6, r0, r2
	adc	r7, r1, r3
	.loc 1 539 49
	ldrd	r2, [sp, #8]
	cmp	r3, r7
	it	eq
	cmpeq	r2, r6
	bcs	.L160
	.loc 1 529 3
	b	.L161
.L160:
	.loc 1 541 22
	ldr	r0, [sp, #36]
	bl	_ZN3Key8isDetectEv
	mov	r3, r0
	cmp	r3, #0
	beq	.L163
	.loc 1 543 16
	ldr	r0, [sp, #36]
	bl	_ZN3Key7countupEv
	.loc 1 544 27
	ldr	r0, [sp, #36]
	bl	_ZN3Key18delayForRepeatTimeEv
	.loc 1 541 3
	b	.L160
.LFE37:
	.size	_ZL31thread_handlerCountUpWithRepeatPv, .-_ZL31thread_handlerCountUpWithRepeatPv
	.section	.text._ZL23thread_handlerCountDownPv,"ax",%progbits
	.align	1
	.syntax unified
	.thumb
	.thumb_func
	.fpu softvfp
	.type	_ZL23thread_handlerCountDownPv, %function
_ZL23thread_handlerCountDownPv:
.LFB38:
	.loc 1 550 1
	@ args = 0, pretend = 0, frame = 24
	@ frame_needed = 0, uses_anonymous_args = 0
	push	{r4, r5, r6, r7, lr}
.LCFI83:
	sub	sp, sp, #28
.LCFI84:
	str	r0, [sp, #4]
	.loc 1 551 7
	ldr	r3, [sp, #4]
	str	r3, [sp, #20]
.L166:
	.loc 1 554 21
	ldr	r0, [sp, #20]
	bl	_ZN3Key8isDetectEv
	mov	r3, r0
	cmp	r3, #0
	beq	.L173
	.loc 1 555 16
	bl	yield
	.loc 1 554 2
	b	.L166
.L173:
	.loc 1 559 1
	nop
.L165:
	.loc 1 560 22
	ldr	r0, [sp, #20]
	bl	_ZN3Key8isDetectEv
	mov	r3, r0
	.loc 1 560 25
	cmp	r3, #0
	ite	eq
	moveq	r3, #1
	movne	r3, #0
	uxtb	r3, r3
	cmp	r3, #0
	beq	.L167
	.loc 1 561 17
	bl	yield
	.loc 1 560 3
	b	.L165
.L167:
	.loc 1 563 36
	bl	_ZN4time14getRunningMsecEv
	mov	r4, r0
	mov	r5, r1
	.loc 1 563 57
	ldr	r0, [sp, #20]
	bl	_ZN3Key11getDeadTimeEv
	mov	r3, r0
	mov	r2, r3
	mov	r3, #0
	.loc 1 563 14
	adds	r6, r4, r2
	adc	r7, r5, r3
	strd	r6, [sp, #8]
.L170:
	.loc 1 565 43
	bl	_ZN4time14getRunningMsecEv
	.loc 1 565 20
	ldrd	r2, [sp, #8]
	cmp	r3, r1
	it	eq
	cmpeq	r2, r0
	ite	cs
	movcs	r3, #1
	movcc	r3, #0
	uxtb	r3, r3
	cmp	r3, #0
	beq	.L168
	.loc 1 567 17
	bl	yield
	.loc 1 568 20
	ldr	r0, [sp, #20]
	bl	_ZN3Key8isDetectEv
	mov	r3, r0
	.loc 1 568 23
	cmp	r3, #0
	ite	eq
	moveq	r3, #1
	movne	r3, #0
	uxtb	r3, r3
	.loc 1 568 4
	cmp	r3, #0
	beq	.L170
	.loc 1 569 10
	b	.L165
.L168:
	.loc 1 572 17
	ldr	r0, [sp, #20]
	bl	_ZN3Key9countdownEv
.L172:
	.loc 1 574 22
	ldr	r0, [sp, #20]
	bl	_ZN3Key8isDetectEv
	mov	r3, r0
	.loc 1 574 25
	cmp	r3, #1
	ite	eq
	moveq	r3, #1
	movne	r3, #0
	uxtb	r3, r3
	cmp	r3, #0
	beq	.L173
	.loc 1 575 17
	bl	yield
	.loc 1 574 3
	b	.L172
.LFE38:
	.size	_ZL23thread_handlerCountDownPv, .-_ZL23thread_handlerCountDownPv
	.section	.text._ZL33thread_handlerCountDownWithRepeatPv,"ax",%progbits
	.align	1
	.syntax unified
	.thumb
	.thumb_func
	.fpu softvfp
	.type	_ZL33thread_handlerCountDownWithRepeatPv, %function
_ZL33thread_handlerCountDownWithRepeatPv:
.LFB39:
	.loc 1 580 1
	@ args = 0, pretend = 0, frame = 40
	@ frame_needed = 0, uses_anonymous_args = 0
	push	{r4, r5, r6, r7, lr}
.LCFI85:
	sub	sp, sp, #44
.LCFI86:
	str	r0, [sp, #4]
	.loc 1 581 7
	ldr	r3, [sp, #4]
	str	r3, [sp, #36]
	.loc 1 582 46
	ldr	r0, [sp, #36]
	bl	_ZN3Key13getAcceptTimeEv
	str	r0, [sp, #32]
	.loc 1 582 77
	ldr	r0, [sp, #36]
	bl	_ZN3Key11getDeadTimeEv
	str	r0, [sp, #28]
.L176:
	.loc 1 585 21
	ldr	r0, [sp, #36]
	bl	_ZN3Key8isDetectEv
	mov	r3, r0
	cmp	r3, #0
	beq	.L183
	.loc 1 586 16
	bl	yield
	.loc 1 585 2
	b	.L176
.L183:
	.loc 1 590 1
	nop
.L175:
	.loc 1 591 22
	ldr	r0, [sp, #36]
	bl	_ZN3Key8isDetectEv
	mov	r3, r0
	.loc 1 591 25
	cmp	r3, #0
	ite	eq
	moveq	r3, #1
	movne	r3, #0
	uxtb	r3, r3
	cmp	r3, #0
	beq	.L177
	.loc 1 592 17
	bl	yield
	.loc 1 591 3
	b	.L175
.L177:
	.loc 1 594 31
	bl	_ZN4time14getRunningMsecEv
	strd	r0, [sp, #16]
.L181:
	.loc 1 597 17
	bl	yield
	.loc 1 598 31
	bl	_ZN4time14getRunningMsecEv
	strd	r0, [sp, #8]
	.loc 1 599 20
	ldr	r0, [sp, #36]
	bl	_ZN3Key8isDetectEv
	mov	r3, r0
	.loc 1 599 23
	cmp	r3, #0
	ite	eq
	moveq	r3, #1
	movne	r3, #0
	uxtb	r3, r3
	.loc 1 599 4
	cmp	r3, #0
	beq	.L178
	.loc 1 601 23
	ldr	r3, [sp, #28]
	mov	r0, r3
	mov	r1, #0
	.loc 1 601 21
	ldrd	r2, [sp, #16]
	adds	r4, r0, r2
	adc	r5, r1, r3
	.loc 1 601 5
	ldrd	r2, [sp, #8]
	cmp	r5, r3
	it	eq
	cmpeq	r4, r2
	bcs	.L175
	.loc 1 602 20
	ldr	r0, [sp, #36]
	bl	_ZN3Key9countdownEv
	.loc 1 603 10
	b	.L175
.L178:
	.loc 1 605 18
	ldr	r3, [sp, #32]
	mov	r0, r3
	mov	r1, #0
	.loc 1 605 16
	ldrd	r2, [sp, #16]
	adds	r6, r0, r2
	adc	r7, r1, r3
	.loc 1 605 49
	ldrd	r2, [sp, #8]
	cmp	r3, r7
	it	eq
	cmpeq	r2, r6
	bcs	.L180
	.loc 1 595 3
	b	.L181
.L180:
	.loc 1 607 22
	ldr	r0, [sp, #36]
	bl	_ZN3Key8isDetectEv
	mov	r3, r0
	cmp	r3, #0
	beq	.L183
	.loc 1 609 18
	ldr	r0, [sp, #36]
	bl	_ZN3Key9countdownEv
	.loc 1 610 27
	ldr	r0, [sp, #36]
	bl	_ZN3Key18delayForRepeatTimeEv
	.loc 1 607 3
	b	.L180
.LFE39:
	.size	_ZL33thread_handlerCountDownWithRepeatPv, .-_ZL33thread_handlerCountDownWithRepeatPv
	.section	.text.__tcf_0,"ax",%progbits
	.align	1
	.syntax unified
	.thumb
	.thumb_func
	.fpu softvfp
	.type	__tcf_0, %function
__tcf_0:
.LFB41:
	.loc 1 61 12
	@ args = 0, pretend = 0, frame = 8
	@ frame_needed = 0, uses_anonymous_args = 0
	push	{r4, lr}
.LCFI87:
	sub	sp, sp, #8
.LCFI88:
	str	r0, [sp, #4]
	.loc 1 61 12
	ldr	r4, .L187
.L186:
	.loc 1 61 12 is_stmt 0 discriminator 4
	ldr	r3, .L187
	cmp	r4, r3
	beq	.L184
	.loc 1 61 12 discriminator 3
	subs	r4, r4, #48
	mov	r0, r4
	bl	_ZN3KeyD1Ev
	b	.L186
.L184:
	.loc 1 61 12
	add	sp, sp, #8
.LCFI89:
	@ sp needed
	pop	{r4, pc}
.L188:
	.align	2
.L187:
	.word	_ZL4gKey
.LFE41:
	.size	__tcf_0, .-__tcf_0
	.section	.text._Z41__static_initialization_and_destruction_0ii,"ax",%progbits
	.align	1
	.syntax unified
	.thumb
	.thumb_func
	.fpu softvfp
	.type	_Z41__static_initialization_and_destruction_0ii, %function
_Z41__static_initialization_and_destruction_0ii:
.LFB40:
	.loc 1 613 1 is_stmt 1
	@ args = 0, pretend = 0, frame = 8
	@ frame_needed = 0, uses_anonymous_args = 0
	push	{lr}
.LCFI90:
	sub	sp, sp, #12
.LCFI91:
	str	r0, [sp, #4]
	str	r1, [sp]
	.loc 1 613 1
	ldr	r3, [sp, #4]
	cmp	r3, #1
	bne	.L191
	.loc 1 613 1 is_stmt 0 discriminator 1
	ldr	r3, [sp]
	movw	r2, #65535
	cmp	r3, r2
	bne	.L191
	.loc 1 61 12 is_stmt 1
	ldr	r2, .L192
	ldr	r1, .L192+4
	movs	r0, #0
	bl	__aeabi_atexit
.L191:
	.loc 1 613 1
	nop
	add	sp, sp, #12
.LCFI92:
	@ sp needed
	ldr	pc, [sp], #4
.L193:
	.align	2
.L192:
	.word	__dso_handle
	.word	__tcf_0
.LFE40:
	.size	_Z41__static_initialization_and_destruction_0ii, .-_Z41__static_initialization_and_destruction_0ii
	.section	.text._GLOBAL__sub_I__ZN3key11gHandlerCntE,"ax",%progbits
	.align	1
	.syntax unified
	.thumb
	.thumb_func
	.fpu softvfp
	.type	_GLOBAL__sub_I__ZN3key11gHandlerCntE, %function
_GLOBAL__sub_I__ZN3key11gHandlerCntE:
.LFB42:
	.loc 1 613 1
	@ args = 0, pretend = 0, frame = 0
	@ frame_needed = 0, uses_anonymous_args = 0
	push	{r3, lr}
.LCFI93:
	.loc 1 613 1
	movw	r1, #65535
	movs	r0, #1
	bl	_Z41__static_initialization_and_destruction_0ii
	pop	{r3, pc}
.LFE42:
	.size	_GLOBAL__sub_I__ZN3key11gHandlerCntE, .-_GLOBAL__sub_I__ZN3key11gHandlerCntE
	.section	.init_array,"aw",%init_array
	.align	2
	.word	_GLOBAL__sub_I__ZN3key11gHandlerCntE(target1)
	.section	.debug_frame,"",%progbits
.Lframe0:
	.4byte	.LECIE0-.LSCIE0
.LSCIE0:
	.4byte	0xffffffff
	.byte	0x3
	.ascii	"\000"
	.uleb128 0x1
	.sleb128 -4
	.uleb128 0xe
	.byte	0xc
	.uleb128 0xd
	.uleb128 0
	.align	2
.LECIE0:
.LSFDE0:
	.4byte	.LEFDE0-.LASFDE0
.LASFDE0:
	.4byte	.Lframe0
	.4byte	.LFB0
	.4byte	.LFE0-.LFB0
	.byte	0x4
	.4byte	.LCFI0-.LFB0
	.byte	0xe
	.uleb128 0x4
	.byte	0x8e
	.uleb128 0x1
	.byte	0x4
	.4byte	.LCFI1-.LCFI0
	.byte	0xe
	.uleb128 0x10
	.byte	0x4
	.4byte	.LCFI2-.LCFI1
	.byte	0xe
	.uleb128 0x4
	.align	2
.LEFDE0:
.LSFDE2:
	.4byte	.LEFDE2-.LASFDE2
.LASFDE2:
	.4byte	.Lframe0
	.4byte	.LFB1
	.4byte	.LFE1-.LFB1
	.byte	0x4
	.4byte	.LCFI3-.LFB1
	.byte	0xe
	.uleb128 0x10
	.byte	0x4
	.4byte	.LCFI4-.LCFI3
	.byte	0xe
	.uleb128 0
	.align	2
.LEFDE2:
.LSFDE4:
	.4byte	.LEFDE4-.LASFDE4
.LASFDE4:
	.4byte	.Lframe0
	.4byte	.LFB2
	.4byte	.LFE2-.LFB2
	.byte	0x4
	.4byte	.LCFI5-.LFB2
	.byte	0xe
	.uleb128 0x10
	.byte	0x4
	.4byte	.LCFI6-.LCFI5
	.byte	0xe
	.uleb128 0
	.align	2
.LEFDE4:
.LSFDE6:
	.4byte	.LEFDE6-.LASFDE6
.LASFDE6:
	.4byte	.Lframe0
	.4byte	.LFB3
	.4byte	.LFE3-.LFB3
	.byte	0x4
	.4byte	.LCFI7-.LFB3
	.byte	0xe
	.uleb128 0x10
	.byte	0x4
	.4byte	.LCFI8-.LCFI7
	.byte	0xe
	.uleb128 0
	.align	2
.LEFDE6:
.LSFDE8:
	.4byte	.LEFDE8-.LASFDE8
.LASFDE8:
	.4byte	.Lframe0
	.4byte	.LFB4
	.4byte	.LFE4-.LFB4
	.byte	0x4
	.4byte	.LCFI9-.LFB4
	.byte	0xe
	.uleb128 0x10
	.byte	0x4
	.4byte	.LCFI10-.LCFI9
	.byte	0xe
	.uleb128 0
	.align	2
.LEFDE8:
.LSFDE10:
	.4byte	.LEFDE10-.LASFDE10
.LASFDE10:
	.4byte	.Lframe0
	.4byte	.LFB5
	.4byte	.LFE5-.LFB5
	.byte	0x4
	.4byte	.LCFI11-.LFB5
	.byte	0xe
	.uleb128 0x10
	.byte	0x4
	.4byte	.LCFI12-.LCFI11
	.byte	0xe
	.uleb128 0
	.align	2
.LEFDE10:
.LSFDE12:
	.4byte	.LEFDE12-.LASFDE12
.LASFDE12:
	.4byte	.Lframe0
	.4byte	.LFB6
	.4byte	.LFE6-.LFB6
	.byte	0x4
	.4byte	.LCFI13-.LFB6
	.byte	0xe
	.uleb128 0x10
	.byte	0x4
	.4byte	.LCFI14-.LCFI13
	.byte	0xe
	.uleb128 0
	.align	2
.LEFDE12:
.LSFDE14:
	.4byte	.LEFDE14-.LASFDE14
.LASFDE14:
	.4byte	.Lframe0
	.4byte	.LFB7
	.4byte	.LFE7-.LFB7
	.byte	0x4
	.4byte	.LCFI15-.LFB7
	.byte	0xe
	.uleb128 0x10
	.byte	0x4
	.4byte	.LCFI16-.LCFI15
	.byte	0xe
	.uleb128 0
	.align	2
.LEFDE14:
.LSFDE16:
	.4byte	.LEFDE16-.LASFDE16
.LASFDE16:
	.4byte	.Lframe0
	.4byte	.LFB9
	.4byte	.LFE9-.LFB9
	.byte	0x4
	.4byte	.LCFI17-.LFB9
	.byte	0xe
	.uleb128 0x4
	.byte	0x8e
	.uleb128 0x1
	.byte	0x4
	.4byte	.LCFI18-.LCFI17
	.byte	0xe
	.uleb128 0x10
	.byte	0x4
	.4byte	.LCFI19-.LCFI18
	.byte	0xe
	.uleb128 0x4
	.align	2
.LEFDE16:
.LSFDE18:
	.4byte	.LEFDE18-.LASFDE18
.LASFDE18:
	.4byte	.Lframe0
	.4byte	.LFB12
	.4byte	.LFE12-.LFB12
	.byte	0x4
	.4byte	.LCFI20-.LFB12
	.byte	0xe
	.uleb128 0x4
	.byte	0x8e
	.uleb128 0x1
	.byte	0x4
	.4byte	.LCFI21-.LCFI20
	.byte	0xe
	.uleb128 0x10
	.byte	0x4
	.4byte	.LCFI22-.LCFI21
	.byte	0xe
	.uleb128 0x4
	.align	2
.LEFDE18:
.LSFDE20:
	.4byte	.LEFDE20-.LASFDE20
.LASFDE20:
	.4byte	.Lframe0
	.4byte	.LFB14
	.4byte	.LFE14-.LFB14
	.byte	0x4
	.4byte	.LCFI23-.LFB14
	.byte	0xe
	.uleb128 0x4
	.byte	0x8e
	.uleb128 0x1
	.byte	0x4
	.4byte	.LCFI24-.LCFI23
	.byte	0xe
	.uleb128 0x10
	.byte	0x4
	.4byte	.LCFI25-.LCFI24
	.byte	0xe
	.uleb128 0x4
	.align	2
.LEFDE20:
.LSFDE22:
	.4byte	.LEFDE22-.LASFDE22
.LASFDE22:
	.4byte	.Lframe0
	.4byte	.LFB15
	.4byte	.LFE15-.LFB15
	.byte	0x4
	.4byte	.LCFI26-.LFB15
	.byte	0xe
	.uleb128 0x4
	.byte	0x8e
	.uleb128 0x1
	.byte	0x4
	.4byte	.LCFI27-.LCFI26
	.byte	0xe
	.uleb128 0x18
	.byte	0x4
	.4byte	.LCFI28-.LCFI27
	.byte	0xe
	.uleb128 0x4
	.align	2
.LEFDE22:
.LSFDE24:
	.4byte	.LEFDE24-.LASFDE24
.LASFDE24:
	.4byte	.Lframe0
	.4byte	.LFB16
	.4byte	.LFE16-.LFB16
	.byte	0x4
	.4byte	.LCFI29-.LFB16
	.byte	0xe
	.uleb128 0x4
	.byte	0x8e
	.uleb128 0x1
	.byte	0x4
	.4byte	.LCFI30-.LCFI29
	.byte	0xe
	.uleb128 0x18
	.byte	0x4
	.4byte	.LCFI31-.LCFI30
	.byte	0xe
	.uleb128 0x4
	.align	2
.LEFDE24:
.LSFDE26:
	.4byte	.LEFDE26-.LASFDE26
.LASFDE26:
	.4byte	.Lframe0
	.4byte	.LFB17
	.4byte	.LFE17-.LFB17
	.byte	0x4
	.4byte	.LCFI32-.LFB17
	.byte	0xe
	.uleb128 0x4
	.byte	0x8e
	.uleb128 0x1
	.byte	0x4
	.4byte	.LCFI33-.LCFI32
	.byte	0xe
	.uleb128 0x18
	.byte	0x4
	.4byte	.LCFI34-.LCFI33
	.byte	0xe
	.uleb128 0x4
	.align	2
.LEFDE26:
.LSFDE28:
	.4byte	.LEFDE28-.LASFDE28
.LASFDE28:
	.4byte	.Lframe0
	.4byte	.LFB18
	.4byte	.LFE18-.LFB18
	.byte	0x4
	.4byte	.LCFI35-.LFB18
	.byte	0xe
	.uleb128 0x4
	.byte	0x8e
	.uleb128 0x1
	.byte	0x4
	.4byte	.LCFI36-.LCFI35
	.byte	0xe
	.uleb128 0x18
	.byte	0x4
	.4byte	.LCFI37-.LCFI36
	.byte	0xe
	.uleb128 0x4
	.align	2
.LEFDE28:
.LSFDE30:
	.4byte	.LEFDE30-.LASFDE30
.LASFDE30:
	.4byte	.Lframe0
	.4byte	.LFB19
	.4byte	.LFE19-.LFB19
	.byte	0x4
	.4byte	.LCFI38-.LFB19
	.byte	0xe
	.uleb128 0x4
	.byte	0x8e
	.uleb128 0x1
	.byte	0x4
	.4byte	.LCFI39-.LCFI38
	.byte	0xe
	.uleb128 0x18
	.byte	0x4
	.4byte	.LCFI40-.LCFI39
	.byte	0xe
	.uleb128 0x4
	.align	2
.LEFDE30:
.LSFDE32:
	.4byte	.LEFDE32-.LASFDE32
.LASFDE32:
	.4byte	.Lframe0
	.4byte	.LFB20
	.4byte	.LFE20-.LFB20
	.byte	0x4
	.4byte	.LCFI41-.LFB20
	.byte	0xe
	.uleb128 0x4
	.byte	0x8e
	.uleb128 0x1
	.byte	0x4
	.4byte	.LCFI42-.LCFI41
	.byte	0xe
	.uleb128 0x18
	.byte	0x4
	.4byte	.LCFI43-.LCFI42
	.byte	0xe
	.uleb128 0x4
	.align	2
.LEFDE32:
.LSFDE34:
	.4byte	.LEFDE34-.LASFDE34
.LASFDE34:
	.4byte	.Lframe0
	.4byte	.LFB21
	.4byte	.LFE21-.LFB21
	.byte	0x4
	.4byte	.LCFI44-.LFB21
	.byte	0xe
	.uleb128 0x4
	.byte	0x8e
	.uleb128 0x1
	.byte	0x4
	.4byte	.LCFI45-.LCFI44
	.byte	0xe
	.uleb128 0x18
	.byte	0x4
	.4byte	.LCFI46-.LCFI45
	.byte	0xe
	.uleb128 0x4
	.align	2
.LEFDE34:
.LSFDE36:
	.4byte	.LEFDE36-.LASFDE36
.LASFDE36:
	.4byte	.Lframe0
	.4byte	.LFB22
	.4byte	.LFE22-.LFB22
	.byte	0x4
	.4byte	.LCFI47-.LFB22
	.byte	0xe
	.uleb128 0x4
	.byte	0x8e
	.uleb128 0x1
	.byte	0x4
	.4byte	.LCFI48-.LCFI47
	.byte	0xe
	.uleb128 0x10
	.byte	0x4
	.4byte	.LCFI49-.LCFI48
	.byte	0xe
	.uleb128 0x4
	.align	2
.LEFDE36:
.LSFDE38:
	.4byte	.LEFDE38-.LASFDE38
.LASFDE38:
	.4byte	.Lframe0
	.4byte	.LFB23
	.4byte	.LFE23-.LFB23
	.byte	0x4
	.4byte	.LCFI50-.LFB23
	.byte	0xe
	.uleb128 0x4
	.byte	0x8e
	.uleb128 0x1
	.byte	0x4
	.4byte	.LCFI51-.LCFI50
	.byte	0xe
	.uleb128 0x10
	.byte	0x4
	.4byte	.LCFI52-.LCFI51
	.byte	0xe
	.uleb128 0x4
	.align	2
.LEFDE38:
.LSFDE40:
	.4byte	.LEFDE40-.LASFDE40
.LASFDE40:
	.4byte	.Lframe0
	.4byte	.LFB24
	.4byte	.LFE24-.LFB24
	.byte	0x4
	.4byte	.LCFI53-.LFB24
	.byte	0xe
	.uleb128 0x4
	.byte	0x8e
	.uleb128 0x1
	.byte	0x4
	.4byte	.LCFI54-.LCFI53
	.byte	0xe
	.uleb128 0x10
	.byte	0x4
	.4byte	.LCFI55-.LCFI54
	.byte	0xe
	.uleb128 0x4
	.align	2
.LEFDE40:
.LSFDE42:
	.4byte	.LEFDE42-.LASFDE42
.LASFDE42:
	.4byte	.Lframe0
	.4byte	.LFB25
	.4byte	.LFE25-.LFB25
	.byte	0x4
	.4byte	.LCFI56-.LFB25
	.byte	0xe
	.uleb128 0x4
	.byte	0x8e
	.uleb128 0x1
	.byte	0x4
	.4byte	.LCFI57-.LCFI56
	.byte	0xe
	.uleb128 0x10
	.byte	0x4
	.4byte	.LCFI58-.LCFI57
	.byte	0xe
	.uleb128 0x4
	.align	2
.LEFDE42:
.LSFDE44:
	.4byte	.LEFDE44-.LASFDE44
.LASFDE44:
	.4byte	.Lframe0
	.4byte	.LFB26
	.4byte	.LFE26-.LFB26
	.byte	0x4
	.4byte	.LCFI59-.LFB26
	.byte	0xe
	.uleb128 0x8
	.byte	0x4
	.4byte	.LCFI60-.LCFI59
	.byte	0xe
	.uleb128 0
	.align	2
.LEFDE44:
.LSFDE46:
	.4byte	.LEFDE46-.LASFDE46
.LASFDE46:
	.4byte	.Lframe0
	.4byte	.LFB27
	.4byte	.LFE27-.LFB27
	.byte	0x4
	.4byte	.LCFI61-.LFB27
	.byte	0xe
	.uleb128 0x8
	.byte	0x4
	.4byte	.LCFI62-.LCFI61
	.byte	0xe
	.uleb128 0
	.align	2
.LEFDE46:
.LSFDE48:
	.4byte	.LEFDE48-.LASFDE48
.LASFDE48:
	.4byte	.Lframe0
	.4byte	.LFB28
	.4byte	.LFE28-.LFB28
	.byte	0x4
	.4byte	.LCFI63-.LFB28
	.byte	0xe
	.uleb128 0x8
	.byte	0x4
	.4byte	.LCFI64-.LCFI63
	.byte	0xe
	.uleb128 0
	.align	2
.LEFDE48:
.LSFDE50:
	.4byte	.LEFDE50-.LASFDE50
.LASFDE50:
	.4byte	.Lframe0
	.4byte	.LFB29
	.4byte	.LFE29-.LFB29
	.byte	0x4
	.4byte	.LCFI65-.LFB29
	.byte	0xe
	.uleb128 0x8
	.byte	0x4
	.4byte	.LCFI66-.LCFI65
	.byte	0xe
	.uleb128 0
	.align	2
.LEFDE50:
.LSFDE52:
	.4byte	.LEFDE52-.LASFDE52
.LASFDE52:
	.4byte	.Lframe0
	.4byte	.LFB30
	.4byte	.LFE30-.LFB30
	.byte	0x4
	.4byte	.LCFI67-.LFB30
	.byte	0xe
	.uleb128 0x8
	.byte	0x4
	.4byte	.LCFI68-.LCFI67
	.byte	0xe
	.uleb128 0
	.align	2
.LEFDE52:
.LSFDE54:
	.4byte	.LEFDE54-.LASFDE54
.LASFDE54:
	.4byte	.Lframe0
	.4byte	.LFB31
	.4byte	.LFE31-.LFB31
	.byte	0x4
	.4byte	.LCFI69-.LFB31
	.byte	0xe
	.uleb128 0x8
	.byte	0x4
	.4byte	.LCFI70-.LCFI69
	.byte	0xe
	.uleb128 0
	.align	2
.LEFDE54:
.LSFDE56:
	.4byte	.LEFDE56-.LASFDE56
.LASFDE56:
	.4byte	.Lframe0
	.4byte	.LFB32
	.4byte	.LFE32-.LFB32
	.byte	0x4
	.4byte	.LCFI71-.LFB32
	.byte	0xe
	.uleb128 0x8
	.byte	0x4
	.4byte	.LCFI72-.LCFI71
	.byte	0xe
	.uleb128 0
	.align	2
.LEFDE56:
.LSFDE58:
	.4byte	.LEFDE58-.LASFDE58
.LASFDE58:
	.4byte	.Lframe0
	.4byte	.LFB33
	.4byte	.LFE33-.LFB33
	.byte	0x4
	.4byte	.LCFI73-.LFB33
	.byte	0xe
	.uleb128 0x14
	.byte	0x84
	.uleb128 0x5
	.byte	0x85
	.uleb128 0x4
	.byte	0x86
	.uleb128 0x3
	.byte	0x87
	.uleb128 0x2
	.byte	0x8e
	.uleb128 0x1
	.byte	0x4
	.4byte	.LCFI74-.LCFI73
	.byte	0xe
	.uleb128 0x30
	.align	2
.LEFDE58:
.LSFDE60:
	.4byte	.LEFDE60-.LASFDE60
.LASFDE60:
	.4byte	.Lframe0
	.4byte	.LFB34
	.4byte	.LFE34-.LFB34
	.byte	0x4
	.4byte	.LCFI75-.LFB34
	.byte	0xe
	.uleb128 0x14
	.byte	0x84
	.uleb128 0x5
	.byte	0x85
	.uleb128 0x4
	.byte	0x86
	.uleb128 0x3
	.byte	0x87
	.uleb128 0x2
	.byte	0x8e
	.uleb128 0x1
	.byte	0x4
	.4byte	.LCFI76-.LCFI75
	.byte	0xe
	.uleb128 0x30
	.align	2
.LEFDE60:
.LSFDE62:
	.4byte	.LEFDE62-.LASFDE62
.LASFDE62:
	.4byte	.Lframe0
	.4byte	.LFB35
	.4byte	.LFE35-.LFB35
	.byte	0x4
	.4byte	.LCFI77-.LFB35
	.byte	0xe
	.uleb128 0x14
	.byte	0x84
	.uleb128 0x5
	.byte	0x85
	.uleb128 0x4
	.byte	0x86
	.uleb128 0x3
	.byte	0x87
	.uleb128 0x2
	.byte	0x8e
	.uleb128 0x1
	.byte	0x4
	.4byte	.LCFI78-.LCFI77
	.byte	0xe
	.uleb128 0x30
	.align	2
.LEFDE62:
.LSFDE64:
	.4byte	.LEFDE64-.LASFDE64
.LASFDE64:
	.4byte	.Lframe0
	.4byte	.LFB36
	.4byte	.LFE36-.LFB36
	.byte	0x4
	.4byte	.LCFI79-.LFB36
	.byte	0xe
	.uleb128 0x14
	.byte	0x84
	.uleb128 0x5
	.byte	0x85
	.uleb128 0x4
	.byte	0x86
	.uleb128 0x3
	.byte	0x87
	.uleb128 0x2
	.byte	0x8e
	.uleb128 0x1
	.byte	0x4
	.4byte	.LCFI80-.LCFI79
	.byte	0xe
	.uleb128 0x30
	.align	2
.LEFDE64:
.LSFDE66:
	.4byte	.LEFDE66-.LASFDE66
.LASFDE66:
	.4byte	.Lframe0
	.4byte	.LFB37
	.4byte	.LFE37-.LFB37
	.byte	0x4
	.4byte	.LCFI81-.LFB37
	.byte	0xe
	.uleb128 0x14
	.byte	0x84
	.uleb128 0x5
	.byte	0x85
	.uleb128 0x4
	.byte	0x86
	.uleb128 0x3
	.byte	0x87
	.uleb128 0x2
	.byte	0x8e
	.uleb128 0x1
	.byte	0x4
	.4byte	.LCFI82-.LCFI81
	.byte	0xe
	.uleb128 0x40
	.align	2
.LEFDE66:
.LSFDE68:
	.4byte	.LEFDE68-.LASFDE68
.LASFDE68:
	.4byte	.Lframe0
	.4byte	.LFB38
	.4byte	.LFE38-.LFB38
	.byte	0x4
	.4byte	.LCFI83-.LFB38
	.byte	0xe
	.uleb128 0x14
	.byte	0x84
	.uleb128 0x5
	.byte	0x85
	.uleb128 0x4
	.byte	0x86
	.uleb128 0x3
	.byte	0x87
	.uleb128 0x2
	.byte	0x8e
	.uleb128 0x1
	.byte	0x4
	.4byte	.LCFI84-.LCFI83
	.byte	0xe
	.uleb128 0x30
	.align	2
.LEFDE68:
.LSFDE70:
	.4byte	.LEFDE70-.LASFDE70
.LASFDE70:
	.4byte	.Lframe0
	.4byte	.LFB39
	.4byte	.LFE39-.LFB39
	.byte	0x4
	.4byte	.LCFI85-.LFB39
	.byte	0xe
	.uleb128 0x14
	.byte	0x84
	.uleb128 0x5
	.byte	0x85
	.uleb128 0x4
	.byte	0x86
	.uleb128 0x3
	.byte	0x87
	.uleb128 0x2
	.byte	0x8e
	.uleb128 0x1
	.byte	0x4
	.4byte	.LCFI86-.LCFI85
	.byte	0xe
	.uleb128 0x40
	.align	2
.LEFDE70:
.LSFDE72:
	.4byte	.LEFDE72-.LASFDE72
.LASFDE72:
	.4byte	.Lframe0
	.4byte	.LFB41
	.4byte	.LFE41-.LFB41
	.byte	0x4
	.4byte	.LCFI87-.LFB41
	.byte	0xe
	.uleb128 0x8
	.byte	0x84
	.uleb128 0x2
	.byte	0x8e
	.uleb128 0x1
	.byte	0x4
	.4byte	.LCFI88-.LCFI87
	.byte	0xe
	.uleb128 0x10
	.byte	0x4
	.4byte	.LCFI89-.LCFI88
	.byte	0xe
	.uleb128 0x8
	.align	2
.LEFDE72:
.LSFDE74:
	.4byte	.LEFDE74-.LASFDE74
.LASFDE74:
	.4byte	.Lframe0
	.4byte	.LFB40
	.4byte	.LFE40-.LFB40
	.byte	0x4
	.4byte	.LCFI90-.LFB40
	.byte	0xe
	.uleb128 0x4
	.byte	0x8e
	.uleb128 0x1
	.byte	0x4
	.4byte	.LCFI91-.LCFI90
	.byte	0xe
	.uleb128 0x10
	.byte	0x4
	.4byte	.LCFI92-.LCFI91
	.byte	0xe
	.uleb128 0x4
	.align	2
.LEFDE74:
.LSFDE76:
	.4byte	.LEFDE76-.LASFDE76
.LASFDE76:
	.4byte	.Lframe0
	.4byte	.LFB42
	.4byte	.LFE42-.LFB42
	.byte	0x4
	.4byte	.LCFI93-.LFB42
	.byte	0xe
	.uleb128 0x8
	.byte	0x83
	.uleb128 0x2
	.byte	0x8e
	.uleb128 0x1
	.align	2
.LEFDE76:
	.text
.Letext0:
	.file 2 "/home/mymy49/library/yss/yss/inc/util/key.h"