	.cpu cortex-m0plus
	.eabi_attribute 20, 1
	.eabi_attribute 21, 1
	.eabi_attribute 23, 3
	.eabi_attribute 24, 1
	.eabi_attribute 25, 1
	.eabi_attribute 26, 1
	.eabi_attribute 30, 6
	.eabi_attribute 34, 0
	.eabi_attribute 18, 4
	.file	"mod_CAT24C256.cpp"
	.text
.Ltext0:
	.section	.text._ZN3sac12SerialMemoryC2Ev,"axG",%progbits,_ZN3sac12SerialMemoryC5Ev,comdat
	.align	1
	.weak	_ZN3sac12SerialMemoryC2Ev
	.syntax unified
	.code	16
	.thumb_func
	.fpu softvfp
	.type	_ZN3sac12SerialMemoryC2Ev, %function
_ZN3sac12SerialMemoryC2Ev:
.LFB43:
	.file 1 "/home/mymy49/library/yss/yss/inc/sac/SerialMemory.h"
	.loc 1 27 8
	@ args = 0, pretend = 0, frame = 8
	@ frame_needed = 0, uses_anonymous_args = 0
	@ link register save eliminated.
	sub	sp, sp, #8
.LCFI0:
	str	r0, [sp, #4]
.LBB2:
	.loc 1 27 8
	ldr	r2, .L3
	ldr	r3, [sp, #4]
	str	r2, [r3]
.LBE2:
	ldr	r3, [sp, #4]
	movs	r0, r3
	add	sp, sp, #8
	@ sp needed
	bx	lr
.L4:
	.align	2
.L3:
	.word	_ZTVN3sac12SerialMemoryE+8
.LFE43:
	.size	_ZN3sac12SerialMemoryC2Ev, .-_ZN3sac12SerialMemoryC2Ev
	.weak	_ZN3sac12SerialMemoryC1Ev
	.thumb_set _ZN3sac12SerialMemoryC1Ev,_ZN3sac12SerialMemoryC2Ev
	.section	.text._ZN3mod6eeprom9CAT24C256C2Ev,"ax",%progbits
	.align	1
	.global	_ZN3mod6eeprom9CAT24C256C2Ev
	.syntax unified
	.code	16
	.thumb_func
	.fpu softvfp
	.type	_ZN3mod6eeprom9CAT24C256C2Ev, %function
_ZN3mod6eeprom9CAT24C256C2Ev:
.LFB45:
	.file 2 "/home/mymy49/library/yss/yss/mod/eeprom/mod_CAT24C256.cpp"
	.loc 2 33 2
	@ args = 0, pretend = 0, frame = 8
	@ frame_needed = 0, uses_anonymous_args = 0
	push	{lr}
.LCFI1:
	sub	sp, sp, #12
.LCFI2:
	str	r0, [sp, #4]
.LBB3:
	.loc 2 33 27
	ldr	r3, [sp, #4]
	movs	r0, r3
	bl	_ZN3sac12SerialMemoryC2Ev
	ldr	r2, .L7
	ldr	r3, [sp, #4]
	str	r2, [r3]
	.loc 2 35 9
	ldr	r3, [sp, #4]
	movs	r2, #0
	str	r2, [r3, #4]
	.loc 2 36 7
	ldr	r3, [sp, #4]
	movs	r2, #0
	str	r2, [r3, #8]
	.loc 2 37 13
	ldr	r3, [sp, #4]
	movs	r2, #0
	strb	r2, [r3, #12]
	.loc 2 38 9
	ldr	r3, [sp, #4]
	movs	r2, #160
	strb	r2, [r3, #13]
	.loc 2 39 20
	ldr	r1, [sp, #4]
	movs	r2, #0
	movs	r3, #0
	str	r2, [r1, #16]
	str	r3, [r1, #20]
.LBE3:
	.loc 2 40 2
	ldr	r3, [sp, #4]
	movs	r0, r3
	add	sp, sp, #12
	@ sp needed
	pop	{pc}
.L8:
	.align	2
.L7:
	.word	_ZTVN3mod6eeprom9CAT24C256E+8
.LFE45:
	.size	_ZN3mod6eeprom9CAT24C256C2Ev, .-_ZN3mod6eeprom9CAT24C256C2Ev
	.global	_ZN3mod6eeprom9CAT24C256C1Ev
	.thumb_set _ZN3mod6eeprom9CAT24C256C1Ev,_ZN3mod6eeprom9CAT24C256C2Ev
	.section	.text._ZN3mod6eeprom9CAT24C2567getSizeEv,"ax",%progbits
	.align	1
	.global	_ZN3mod6eeprom9CAT24C2567getSizeEv
	.syntax unified
	.code	16
	.thumb_func
	.fpu softvfp
	.type	_ZN3mod6eeprom9CAT24C2567getSizeEv, %function
_ZN3mod6eeprom9CAT24C2567getSizeEv:
.LFB47:
	.loc 2 43 2
	@ args = 0, pretend = 0, frame = 8
	@ frame_needed = 0, uses_anonymous_args = 0
	@ link register save eliminated.
	sub	sp, sp, #8
.LCFI3:
	str	r0, [sp, #4]
	.loc 2 44 15
	movs	r3, #128
	lsls	r3, r3, #8
	.loc 2 45 2
	movs	r0, r3
	add	sp, sp, #8
	@ sp needed
	bx	lr
.LFE47:
	.size	_ZN3mod6eeprom9CAT24C2567getSizeEv, .-_ZN3mod6eeprom9CAT24C2567getSizeEv
	.section	.text._ZN3mod6eeprom9CAT24C2564initEPN3drv3I2cEPN6config4gpio3SetEh,"ax",%progbits
	.align	1
	.global	_ZN3mod6eeprom9CAT24C2564initEPN3drv3I2cEPN6config4gpio3SetEh
	.syntax unified
	.code	16
	.thumb_func
	.fpu softvfp
	.type	_ZN3mod6eeprom9CAT24C2564initEPN3drv3I2cEPN6config4gpio3SetEh, %function
_ZN3mod6eeprom9CAT24C2564initEPN3drv3I2cEPN6config4gpio3SetEh:
.LFB48:
	.loc 2 48 2
	@ args = 0, pretend = 0, frame = 24
	@ frame_needed = 0, uses_anonymous_args = 0
	push	{lr}
.LCFI4:
	sub	sp, sp, #36
.LCFI5:
	str	r0, [sp, #20]
	str	r1, [sp, #16]
	str	r2, [sp, #12]
	movs	r2, r3
	movs	r3, #11
	add	r3, r3, sp
	strb	r2, [r3]
	.loc 2 50 8
	add	r3, sp, #28
	movs	r2, #0
	strh	r2, [r3]
	.loc 2 52 9
	ldr	r3, [sp, #20]
	ldr	r2, [sp, #16]
	str	r2, [r3, #4]
	.loc 2 53 7
	ldr	r3, [sp, #20]
	ldr	r2, [sp, #12]
	str	r2, [r3, #8]
	.loc 2 54 13
	ldr	r3, [sp, #20]
	movs	r2, #1
	strb	r2, [r3, #12]
	.loc 2 55 9
	ldr	r3, [sp, #20]
	ldrb	r2, [r3, #13]
	.loc 2 55 18
	movs	r3, #11
	add	r3, r3, sp
	ldrb	r3, [r3]
	movs	r1, #14
	ands	r3, r1
	uxtb	r3, r3
	.loc 2 55 9
	orrs	r3, r2
	uxtb	r2, r3
	ldr	r3, [sp, #20]
	strb	r2, [r3, #13]
	.loc 2 57 6
	ldr	r3, [sp, #20]
	ldr	r3, [r3, #8]
	.loc 2 57 3
	cmp	r3, #0
	beq	.L12
	.loc 2 58 4
	ldr	r3, [sp, #20]
	ldr	r3, [r3, #8]
	.loc 2 58 9
	ldr	r0, [r3]
	.loc 2 58 25
	ldr	r3, [sp, #20]
	ldr	r3, [r3, #8]
	.loc 2 58 30
	ldrb	r3, [r3, #4]
	.loc 2 58 24
	movs	r2, #1
	movs	r1, r3
	bl	_ZN3drv4Gpio9setOutputEhb
.L12:
	.loc 2 60 3
	ldr	r3, [sp, #20]
	ldr	r3, [r3, #4]
	.loc 2 60 14
	adds	r3, r3, #20
	movs	r0, r3
	bl	_ZN3Drv4lockEv
	.loc 2 61 3
	ldr	r3, [sp, #20]
	ldr	r0, [r3, #4]
	.loc 2 61 14
	add	r2, sp, #28
	movs	r3, #150
	lsls	r3, r3, #1
	str	r3, [sp]
	movs	r3, #2
	movs	r1, #161
	bl	_ZN3drv3I2c4sendEhPvmm
	.loc 2 62 15
	ldr	r3, [sp, #20]
	ldr	r0, [r3, #4]
	.loc 2 62 29
	add	r2, sp, #28
	movs	r3, #250
	lsls	r3, r3, #1
	str	r3, [sp]
	movs	r3, #1
	movs	r1, #161
	bl	_ZN3drv3I2c7receiveEhPvmm
	movs	r3, r0
	movs	r2, r3
	.loc 2 62 13
	ldr	r3, [sp, #20]
	strb	r2, [r3, #12]
	.loc 2 63 3
	ldr	r3, [sp, #20]
	ldr	r3, [r3, #4]
	.loc 2 63 16
	adds	r3, r3, #20
	movs	r0, r3
	bl	_ZN3Drv6unlockEv
	.loc 2 65 10
	ldr	r3, [sp, #20]
	ldrb	r3, [r3, #12]
	.loc 2 66 2
	movs	r0, r3
	add	sp, sp, #36
	@ sp needed
	pop	{pc}
.LFE48:
	.size	_ZN3mod6eeprom9CAT24C2564initEPN3drv3I2cEPN6config4gpio3SetEh, .-_ZN3mod6eeprom9CAT24C2564initEPN3drv3I2cEPN6config4gpio3SetEh
	.section	.text._ZN3mod6eeprom9CAT24C25610writeBytesEmPvm,"ax",%progbits
	.align	1
	.global	_ZN3mod6eeprom9CAT24C25610writeBytesEmPvm
	.syntax unified
	.code	16
	.thumb_func
	.fpu softvfp
	.type	_ZN3mod6eeprom9CAT24C25610writeBytesEmPvm, %function
_ZN3mod6eeprom9CAT24C25610writeBytesEmPvm:
.LFB49:
	.loc 2 69 2
	@ args = 0, pretend = 0, frame = 104
	@ frame_needed = 0, uses_anonymous_args = 0
	push	{r4, r5, lr}
.LCFI6:
	sub	sp, sp, #116
.LCFI7:
	str	r0, [sp, #20]
	str	r1, [sp, #16]
	str	r2, [sp, #12]
	str	r3, [sp, #8]
	.loc 2 71 18
	ldr	r3, [sp, #12]
	str	r3, [sp, #108]
.L42:
	.loc 2 74 9
	ldr	r3, [sp, #8]
	cmp	r3, #0
	bne	.LCB225
	b	.L15	@long jump
.LCB225:
.LBB4:
	.loc 2 76 4
	ldr	r3, [sp, #8]
	cmp	r3, #64
	bls	.L16
	.loc 2 78 9
	add	r3, sp, #92
	movs	r2, #64
	strb	r2, [r3]
	.loc 2 79 10
	ldr	r3, [sp, #8]
	subs	r3, r3, #64
	str	r3, [sp, #8]
	b	.L17
.L16:
	.loc 2 83 9
	ldr	r3, [sp, #8]
	uxtb	r2, r3
	add	r3, sp, #92
	strb	r2, [r3]
	.loc 2 84 10
	movs	r3, #0
	str	r3, [sp, #8]
.L17:
	.loc 2 87 19
	ldr	r3, [sp, #16]
	uxtb	r3, r3
	movs	r2, #63
	ands	r3, r2
	uxtb	r3, r3
	.loc 2 87 11
	movs	r2, #64
	subs	r3, r2, r3
	uxtb	r2, r3
	.loc 2 87 6
	movs	r3, #93
	add	r3, r3, sp
	strb	r2, [r3]
.LBB5:
	.loc 2 89 10
	movs	r3, #93
	add	r3, r3, sp
	ldrb	r3, [r3]
	uxtb	r2, r3
	add	r3, sp, #92
	ldrb	r3, [r3]
	uxtb	r3, r3
	cmp	r2, r3
	sbcs	r3, r3, r3
	rsbs	r3, r3, #0
	uxtb	r3, r3
	.loc 2 89 4
	cmp	r3, #0
	bne	.LCB271
	b	.L18	@long jump
.LCB271:
.LBB6:
	.loc 2 91 18
	ldr	r3, [sp, #16]
	lsrs	r3, r3, #8
	.loc 2 91 12
	uxtb	r2, r3
	add	r3, sp, #24
	strb	r2, [r3]
	.loc 2 92 12
	ldr	r3, [sp, #16]
	uxtb	r2, r3
	add	r3, sp, #24
	strb	r2, [r3, #1]
	.loc 2 94 10
	movs	r3, #95
	add	r3, r3, sp
	movs	r2, #2
	strb	r2, [r3]
.L20:
	.loc 2 94 15 discriminator 3
	movs	r3, #93
	add	r3, r3, sp
	ldrb	r3, [r3]
	uxtb	r3, r3
	.loc 2 94 14 discriminator 3
	adds	r3, r3, #1
	.loc 2 94 13 discriminator 3
	movs	r2, #95
	add	r2, r2, sp
	ldrb	r2, [r2]
	uxtb	r2, r2
	.loc 2 94 14 discriminator 3
	asrs	r0, r3, #31
	lsrs	r1, r2, #31
	cmp	r3, r2
	adcs	r0, r0, r1
	movs	r3, r0
	uxtb	r3, r3
	cmp	r3, #0
	beq	.L19
	.loc 2 95 20 discriminator 2
	ldr	r3, [sp, #108]
	adds	r2, r3, #1
	str	r2, [sp, #108]
	.loc 2 95 10 discriminator 2
	movs	r2, #95
	add	r2, r2, sp
	ldrb	r2, [r2]
	uxtb	r2, r2
	.loc 2 95 15 discriminator 2
	ldrb	r1, [r3]
	.loc 2 95 13 discriminator 2
	add	r3, sp, #24
	strb	r1, [r3, r2]
	.loc 2 94 5 discriminator 2
	movs	r3, #95
	add	r3, r3, sp
	ldrb	r3, [r3]
	uxtb	r3, r3
	adds	r3, r3, #1
	uxtb	r2, r3
	movs	r3, #95
	add	r3, r3, sp
	strb	r2, [r3]
	b	.L20
.L19:
.LBB7:
	.loc 2 97 13
	movs	r3, #0
	str	r3, [sp, #100]
.L28:
	.loc 2 97 18 discriminator 1
	ldr	r3, [sp, #100]
	cmp	r3, #2
	bgt	.L21
.L24:
	.loc 2 99 12
	ldr	r3, [sp, #20]
	ldr	r2, [r3, #24]
	ldr	r3, [r3, #28]
	.loc 2 99 24
	ldr	r1, [sp, #20]
	ldr	r0, [r1, #16]
	ldr	r1, [r1, #20]
	.loc 2 99 41
	movs	r4, #10
	movs	r5, #0
	adds	r0, r0, r4
	adcs	r1, r1, r5
	.loc 2 99 22
	cmp	r1, r3
	bhi	.L44
	bne	.L22
	cmp	r0, r2
	bls	.L22
.L44:
	.loc 2 101 28
	bl	yield
	.loc 2 102 39
	bl	_ZN4time14getRunningMsecEv
	movs	r2, r0
	movs	r3, r1
	.loc 2 102 17
	ldr	r1, [sp, #20]
	str	r2, [r1, #24]
	str	r3, [r1, #28]
	.loc 2 99 6
	b	.L24
.L22:
	.loc 2 105 6
	ldr	r3, [sp, #20]
	ldr	r3, [r3, #4]
	.loc 2 105 17
	adds	r3, r3, #20
	movs	r0, r3
	bl	_ZN3Drv4lockEv
	.loc 2 106 9
	ldr	r3, [sp, #20]
	ldr	r3, [r3, #8]
	.loc 2 106 6
	cmp	r3, #0
	beq	.L25
	.loc 2 107 7
	ldr	r3, [sp, #20]
	ldr	r3, [r3, #8]
	.loc 2 107 12
	ldr	r0, [r3]
	.loc 2 107 28
	ldr	r3, [sp, #20]
	ldr	r3, [r3, #8]
	.loc 2 107 33
	ldrb	r3, [r3, #4]
	.loc 2 107 27
	movs	r2, #0
	movs	r1, r3
	bl	_ZN3drv4Gpio9setOutputEhb
.L25:
	.loc 2 108 11
	ldr	r3, [sp, #20]
	ldr	r0, [r3, #4]
	.loc 2 108 22
	ldr	r3, [sp, #20]
	ldrb	r1, [r3, #13]
	.loc 2 108 35
	movs	r3, #93
	add	r3, r3, sp
	ldrb	r3, [r3]
	uxtb	r3, r3
	.loc 2 108 36
	adds	r3, r3, #2
	.loc 2 108 22
	movs	r5, r3
	movs	r4, #107
	add	r4, r4, sp
	add	r2, sp, #24
	movs	r3, #250
	lsls	r3, r3, #1
	str	r3, [sp]
	movs	r3, r5
	bl	_ZN3drv3I2c4sendEhPvmm
	movs	r3, r0
	strb	r3, [r4]
	.loc 2 109 6
	ldr	r3, [sp, #20]
	ldr	r3, [r3, #4]
	.loc 2 109 17
	movs	r0, r3
	bl	_ZN3drv3I2c4stopEv
	.loc 2 110 9
	ldr	r3, [sp, #20]
	ldr	r3, [r3, #8]
	.loc 2 110 6
	cmp	r3, #0
	beq	.L26
	.loc 2 111 7
	ldr	r3, [sp, #20]
	ldr	r3, [r3, #8]
	.loc 2 111 12
	ldr	r0, [r3]
	.loc 2 111 28
	ldr	r3, [sp, #20]
	ldr	r3, [r3, #8]
	.loc 2 111 33
	ldrb	r3, [r3, #4]
	.loc 2 111 27
	movs	r2, #1
	movs	r1, r3
	bl	_ZN3drv4Gpio9setOutputEhb
.L26:
	.loc 2 112 6
	ldr	r3, [sp, #20]
	ldr	r3, [r3, #4]
	.loc 2 112 19
	adds	r3, r3, #20
	movs	r0, r3
	bl	_ZN3Drv6unlockEv
	.loc 2 113 45
	bl	_ZN4time14getRunningMsecEv
	movs	r2, r0
	movs	r3, r1
	.loc 2 113 23
	ldr	r1, [sp, #20]
	str	r2, [r1, #16]
	str	r3, [r1, #20]
	.loc 2 115 6
	movs	r3, #107
	add	r3, r3, sp
	ldrb	r3, [r3]
	cmp	r3, #0
	bne	.L46
	.loc 2 97 5 discriminator 2
	ldr	r3, [sp, #100]
	adds	r3, r3, #1
	str	r3, [sp, #100]
	b	.L28
.L46:
	.loc 2 116 7
	nop
.L21:
.LBE7:
	.loc 2 119 11
	movs	r3, #107
	add	r3, r3, sp
	ldrb	r3, [r3]
	.loc 2 119 5
	cmp	r3, #0
	bne	.L29
	.loc 2 121 13
	movs	r3, #0
	b	.L43
.L29:
	.loc 2 124 12
	movs	r3, #93
	add	r3, r3, sp
	ldrb	r3, [r3]
	uxtb	r3, r3
	.loc 2 124 9
	add	r2, sp, #92
	ldrb	r2, [r2]
	uxtb	r2, r2
	subs	r3, r2, r3
	uxtb	r2, r3
	add	r3, sp, #92
	strb	r2, [r3]
	.loc 2 125 13
	movs	r3, #93
	add	r3, r3, sp
	ldrb	r3, [r3]
	uxtb	r3, r3
	.loc 2 125 10
	movs	r2, r3
	ldr	r3, [sp, #16]
	adds	r3, r3, r2
	str	r3, [sp, #16]
.L18:
.LBE6:
.LBE5:
	.loc 2 128 17
	ldr	r3, [sp, #16]
	lsrs	r3, r3, #8
	.loc 2 128 11
	uxtb	r2, r3
	add	r3, sp, #24
	strb	r2, [r3]
	.loc 2 129 11
	ldr	r3, [sp, #16]
	uxtb	r2, r3
	add	r3, sp, #24
	strb	r2, [r3, #1]
	.loc 2 131 9
	movs	r3, #95
	add	r3, r3, sp
	movs	r2, #2
	strb	r2, [r3]
.L32:
	.loc 2 131 14 discriminator 3
	add	r3, sp, #92
	ldrb	r3, [r3]
	uxtb	r3, r3
	.loc 2 131 13 discriminator 3
	adds	r3, r3, #1
	.loc 2 131 12 discriminator 3
	movs	r2, #95
	add	r2, r2, sp
	ldrb	r2, [r2]
	uxtb	r2, r2
	.loc 2 131 13 discriminator 3
	asrs	r0, r3, #31
	lsrs	r1, r2, #31
	cmp	r3, r2
	adcs	r0, r0, r1
	movs	r3, r0
	uxtb	r3, r3
	cmp	r3, #0
	beq	.L31
	.loc 2 132 19 discriminator 2
	ldr	r3, [sp, #108]
	adds	r2, r3, #1
	str	r2, [sp, #108]
	.loc 2 132 9 discriminator 2
	movs	r2, #95
	add	r2, r2, sp
	ldrb	r2, [r2]
	uxtb	r2, r2
	.loc 2 132 14 discriminator 2
	ldrb	r1, [r3]
	.loc 2 132 12 discriminator 2
	add	r3, sp, #24
	strb	r1, [r3, r2]
	.loc 2 131 4 discriminator 2
	movs	r3, #95
	add	r3, r3, sp
	ldrb	r3, [r3]
	uxtb	r3, r3
	adds	r3, r3, #1
	uxtb	r2, r3
	movs	r3, #95
	add	r3, r3, sp
	strb	r2, [r3]
	b	.L32
.L31:
.LBB8:
	.loc 2 134 12
	movs	r3, #0
	str	r3, [sp, #96]
.L40:
	.loc 2 134 17 discriminator 1
	ldr	r3, [sp, #96]
	cmp	r3, #2
	bgt	.L33
.L36:
	.loc 2 136 11
	ldr	r3, [sp, #20]
	ldr	r2, [r3, #24]
	ldr	r3, [r3, #28]
	.loc 2 136 23
	ldr	r1, [sp, #20]
	ldr	r0, [r1, #16]
	ldr	r1, [r1, #20]
	.loc 2 136 40
	movs	r4, #10
	movs	r5, #0
	adds	r0, r0, r4
	adcs	r1, r1, r5
	.loc 2 136 21
	cmp	r1, r3
	bhi	.L45
	bne	.L34
	cmp	r0, r2
	bls	.L34
.L45:
	.loc 2 138 27
	bl	yield
	.loc 2 139 38
	bl	_ZN4time14getRunningMsecEv
	movs	r2, r0
	movs	r3, r1
	.loc 2 139 16
	ldr	r1, [sp, #20]
	str	r2, [r1, #24]
	str	r3, [r1, #28]
	.loc 2 136 5
	b	.L36
.L34:
	.loc 2 142 5
	ldr	r3, [sp, #20]
	ldr	r3, [r3, #4]
	.loc 2 142 16
	adds	r3, r3, #20
	movs	r0, r3
	bl	_ZN3Drv4lockEv
	.loc 2 143 8
	ldr	r3, [sp, #20]
	ldr	r3, [r3, #8]
	.loc 2 143 5
	cmp	r3, #0
	beq	.L37
	.loc 2 144 6
	ldr	r3, [sp, #20]
	ldr	r3, [r3, #8]
	.loc 2 144 11
	ldr	r0, [r3]
	.loc 2 144 27
	ldr	r3, [sp, #20]
	ldr	r3, [r3, #8]
	.loc 2 144 32
	ldrb	r3, [r3, #4]
	.loc 2 144 26
	movs	r2, #0
	movs	r1, r3
	bl	_ZN3drv4Gpio9setOutputEhb
.L37:
	.loc 2 145 10
	ldr	r3, [sp, #20]
	ldr	r0, [r3, #4]
	.loc 2 145 21
	ldr	r3, [sp, #20]
	ldrb	r1, [r3, #13]
	.loc 2 145 34
	add	r3, sp, #92
	ldrb	r3, [r3]
	uxtb	r3, r3
	.loc 2 145 37
	adds	r3, r3, #2
	.loc 2 145 21
	movs	r5, r3
	movs	r4, #107
	add	r4, r4, sp
	add	r2, sp, #24
	movs	r3, #250
	lsls	r3, r3, #1
	str	r3, [sp]
	movs	r3, r5
	bl	_ZN3drv3I2c4sendEhPvmm
	movs	r3, r0
	strb	r3, [r4]
	.loc 2 146 5
	ldr	r3, [sp, #20]
	ldr	r3, [r3, #4]
	.loc 2 146 16
	movs	r0, r3
	bl	_ZN3drv3I2c4stopEv
	.loc 2 147 8
	ldr	r3, [sp, #20]
	ldr	r3, [r3, #8]
	.loc 2 147 5
	cmp	r3, #0
	beq	.L38
	.loc 2 148 6
	ldr	r3, [sp, #20]
	ldr	r3, [r3, #8]
	.loc 2 148 11
	ldr	r0, [r3]
	.loc 2 148 27
	ldr	r3, [sp, #20]
	ldr	r3, [r3, #8]
	.loc 2 148 32
	ldrb	r3, [r3, #4]
	.loc 2 148 26
	movs	r2, #1
	movs	r1, r3
	bl	_ZN3drv4Gpio9setOutputEhb
.L38:
	.loc 2 149 5
	ldr	r3, [sp, #20]
	ldr	r3, [r3, #4]
	.loc 2 149 18
	adds	r3, r3, #20
	movs	r0, r3
	bl	_ZN3Drv6unlockEv
	.loc 2 150 44
	bl	_ZN4time14getRunningMsecEv
	movs	r2, r0
	movs	r3, r1
	.loc 2 150 22
	ldr	r1, [sp, #20]
	str	r2, [r1, #16]
	str	r3, [r1, #20]
	.loc 2 152 5
	movs	r3, #107
	add	r3, r3, sp
	ldrb	r3, [r3]
	cmp	r3, #0
	bne	.L47
	.loc 2 134 4 discriminator 2
	ldr	r3, [sp, #96]
	adds	r3, r3, #1
	str	r3, [sp, #96]
	b	.L40
.L47:
	.loc 2 153 6
	nop
.L33:
.LBE8:
	.loc 2 156 12
	add	r3, sp, #92
	ldrb	r3, [r3]
	uxtb	r3, r3
	.loc 2 156 9
	movs	r2, r3
	ldr	r3, [sp, #16]
	adds	r3, r3, r2
	str	r3, [sp, #16]
	.loc 2 158 10
	movs	r3, #107
	add	r3, r3, sp
	ldrb	r3, [r3]
	.loc 2 158 4
	cmp	r3, #0
	beq	.LCB659
	b	.L42	@long jump
.LCB659:
	.loc 2 160 12
	movs	r3, #0
	b	.L43
.L15:
.LBE4:
	.loc 2 164 10
	movs	r3, #1
.L43:
	.loc 2 165 2 discriminator 1
	movs	r0, r3
	add	sp, sp, #116
	@ sp needed
	pop	{r4, r5, pc}
.LFE49:
	.size	_ZN3mod6eeprom9CAT24C25610writeBytesEmPvm, .-_ZN3mod6eeprom9CAT24C25610writeBytesEmPvm
	.section	.text._ZN3mod6eeprom9CAT24C2569readBytesEmPvm,"ax",%progbits
	.align	1
	.global	_ZN3mod6eeprom9CAT24C2569readBytesEmPvm
	.syntax unified
	.code	16
	.thumb_func
	.fpu softvfp
	.type	_ZN3mod6eeprom9CAT24C2569readBytesEmPvm, %function
_ZN3mod6eeprom9CAT24C2569readBytesEmPvm:
.LFB50:
	.loc 2 168 2
	@ args = 0, pretend = 0, frame = 32
	@ frame_needed = 0, uses_anonymous_args = 0
	push	{r4, r5, lr}
.LCFI8:
	sub	sp, sp, #44
.LCFI9:
	str	r0, [sp, #20]
	str	r1, [sp, #16]
	str	r2, [sp, #12]
	str	r3, [sp, #8]
	.loc 2 170 9
	add	r3, sp, #16
	str	r3, [sp, #28]
	.loc 2 171 8
	movs	r3, #39
	add	r3, r3, sp
	movs	r2, #0
	strb	r2, [r3]
	.loc 2 173 35
	bl	_ZN4time14getRunningMsecEv
	movs	r2, r0
	movs	r3, r1
	.loc 2 173 13
	ldr	r1, [sp, #20]
	str	r2, [r1, #24]
	str	r3, [r1, #28]
.L51:
	.loc 2 174 9
	ldr	r3, [sp, #20]
	ldr	r2, [r3, #24]
	ldr	r3, [r3, #28]
	.loc 2 174 21
	ldr	r1, [sp, #20]
	ldr	r0, [r1, #16]
	ldr	r1, [r1, #20]
	.loc 2 174 38
	movs	r4, #5
	movs	r5, #0
	adds	r0, r0, r4
	adcs	r1, r1, r5
	.loc 2 174 19
	cmp	r1, r3
	bhi	.L58
	bne	.L49
	cmp	r0, r2
	bls	.L49
.L58:
	.loc 2 176 25
	bl	yield
	.loc 2 177 36
	bl	_ZN4time14getRunningMsecEv
	movs	r2, r0
	movs	r3, r1
	.loc 2 177 14
	ldr	r1, [sp, #20]
	str	r2, [r1, #24]
	str	r3, [r1, #28]
	.loc 2 174 3
	b	.L51
.L49:
	.loc 2 180 11
	ldr	r2, [sp, #16]
	ldr	r3, [sp, #8]
	adds	r4, r2, r3
	.loc 2 180 28
	ldr	r3, [sp, #20]
	ldr	r3, [r3]
	ldr	r3, [r3]
	.loc 2 180 27
	ldr	r2, [sp, #20]
	movs	r0, r2
	blx	r3
.LVL0:
	movs	r3, r0
	.loc 2 180 18
	cmp	r3, r4
	sbcs	r3, r3, r3
	rsbs	r3, r3, #0
	uxtb	r3, r3
	.loc 2 180 3
	cmp	r3, #0
	beq	.L52
	.loc 2 181 11
	movs	r3, #0
	b	.L57
.L52:
	.loc 2 183 10
	ldr	r3, [sp, #28]
	ldrb	r2, [r3, #1]
	add	r3, sp, #24
	strb	r2, [r3]
	.loc 2 184 19
	ldr	r3, [sp, #28]
	ldrb	r2, [r3]
	.loc 2 184 10
	add	r3, sp, #24
	strb	r2, [r3, #1]
.LBB9:
	.loc 2 186 11
	movs	r3, #0
	str	r3, [sp, #32]
.L56:
	.loc 2 186 16 discriminator 1
	ldr	r3, [sp, #32]
	cmp	r3, #2
	bgt	.L54
	.loc 2 188 4
	ldr	r3, [sp, #20]
	ldr	r3, [r3, #4]
	.loc 2 188 15
	adds	r3, r3, #20
	movs	r0, r3
	bl	_ZN3Drv4lockEv
	.loc 2 189 4
	ldr	r3, [sp, #20]
	ldr	r0, [r3, #4]
	.loc 2 189 15
	ldr	r3, [sp, #20]
	ldrb	r1, [r3, #13]
	add	r2, sp, #24
	movs	r3, #150
	lsls	r3, r3, #1
	str	r3, [sp]
	movs	r3, #2
	bl	_ZN3drv3I2c4sendEhPvmm
	.loc 2 190 19
	movs	r0, #100
	bl	_ZN6thread7delayUsEj
	.loc 2 191 9
	ldr	r3, [sp, #20]
	ldr	r0, [r3, #4]
	.loc 2 191 23
	ldr	r3, [sp, #20]
	ldrb	r1, [r3, #13]
	movs	r4, #39
	add	r4, r4, sp
	ldr	r5, [sp, #8]
	ldr	r2, [sp, #12]
	movs	r3, #250
	lsls	r3, r3, #1
	str	r3, [sp]
	movs	r3, r5
	bl	_ZN3drv3I2c7receiveEhPvmm
	movs	r3, r0
	strb	r3, [r4]
	.loc 2 192 4
	ldr	r3, [sp, #20]
	ldr	r3, [r3, #4]
	.loc 2 192 17
	adds	r3, r3, #20
	movs	r0, r3
	bl	_ZN3Drv6unlockEv
	.loc 2 194 4
	movs	r3, #39
	add	r3, r3, sp
	ldrb	r3, [r3]
	cmp	r3, #0
	bne	.L59
	.loc 2 186 3 discriminator 2
	ldr	r3, [sp, #32]
	adds	r3, r3, #1
	str	r3, [sp, #32]
	b	.L56
.L59:
	.loc 2 195 5
	nop
.L54:
.LBE9:
	.loc 2 198 10
	movs	r3, #39
	add	r3, r3, sp
	ldrb	r3, [r3]
.L57:
	.loc 2 199 2 discriminator 1
	movs	r0, r3
	add	sp, sp, #44
	@ sp needed
	pop	{r4, r5, pc}
.LFE50:
	.size	_ZN3mod6eeprom9CAT24C2569readBytesEmPvm, .-_ZN3mod6eeprom9CAT24C2569readBytesEmPvm
	.global	_ZTVN3mod6eeprom9CAT24C256E
	.section	.rodata._ZTVN3mod6eeprom9CAT24C256E,"a"
	.align	2
	.type	_ZTVN3mod6eeprom9CAT24C256E, %object
	.size	_ZTVN3mod6eeprom9CAT24C256E, 20
_ZTVN3mod6eeprom9CAT24C256E:
	.word	0
	.word	0
	.word	_ZN3mod6eeprom9CAT24C2567getSizeEv
	.word	_ZN3mod6eeprom9CAT24C25610writeBytesEmPvm
	.word	_ZN3mod6eeprom9CAT24C2569readBytesEmPvm
	.weak	_ZTVN3sac12SerialMemoryE
	.section	.rodata._ZTVN3sac12SerialMemoryE,"aG",%progbits,_ZTVN3sac12SerialMemoryE,comdat
	.align	2
	.type	_ZTVN3sac12SerialMemoryE, %object
	.size	_ZTVN3sac12SerialMemoryE, 20
_ZTVN3sac12SerialMemoryE:
	.word	0
	.word	0
	.word	__cxa_pure_virtual
	.word	__cxa_pure_virtual
	.word	__cxa_pure_virtual
	.section	.debug_frame,"",%progbits
.Lframe0:
	.4byte	.LECIE0-.LSCIE0
.LSCIE0:
	.4byte	0xffffffff
	.byte	0x3
	.ascii	"\000"
	.uleb128 0x1
	.sleb128 -4
	.uleb128 0xe
	.byte	0xc
	.uleb128 0xd
	.uleb128 0
	.align	2
.LECIE0:
.LSFDE0:
	.4byte	.LEFDE0-.LASFDE0
.LASFDE0:
	.4byte	.Lframe0
	.4byte	.LFB43
	.4byte	.LFE43-.LFB43
	.byte	0x4
	.4byte	.LCFI0-.LFB43
	.byte	0xe
	.uleb128 0x8
	.align	2
.LEFDE0:
.LSFDE2:
	.4byte	.LEFDE2-.LASFDE2
.LASFDE2:
	.4byte	.Lframe0
	.4byte	.LFB45
	.4byte	.LFE45-.LFB45
	.byte	0x4
	.4byte	.LCFI1-.LFB45
	.byte	0xe
	.uleb128 0x4
	.byte	0x8e
	.uleb128 0x1
	.byte	0x4
	.4byte	.LCFI2-.LCFI1
	.byte	0xe
	.uleb128 0x10
	.align	2
.LEFDE2:
.LSFDE4:
	.4byte	.LEFDE4-.LASFDE4
.LASFDE4:
	.4byte	.Lframe0
	.4byte	.LFB47
	.4byte	.LFE47-.LFB47
	.byte	0x4
	.4byte	.LCFI3-.LFB47
	.byte	0xe
	.uleb128 0x8
	.align	2
.LEFDE4:
.LSFDE6:
	.4byte	.LEFDE6-.LASFDE6
.LASFDE6:
	.4byte	.Lframe0
	.4byte	.LFB48
	.4byte	.LFE48-.LFB48
	.byte	0x4
	.4byte	.LCFI4-.LFB48
	.byte	0xe
	.uleb128 0x4
	.byte	0x8e
	.uleb128 0x1
	.byte	0x4
	.4byte	.LCFI5-.LCFI4
	.byte	0xe
	.uleb128 0x28
	.align	2
.LEFDE6:
.LSFDE8:
	.4byte	.LEFDE8-.LASFDE8
.LASFDE8:
	.4byte	.Lframe0
	.4byte	.LFB49
	.4byte	.LFE49-.LFB49
	.byte	0x4
	.4byte	.LCFI6-.LFB49
	.byte	0xe
	.uleb128 0xc
	.byte	0x84
	.uleb128 0x3
	.byte	0x85
	.uleb128 0x2
	.byte	0x8e
	.uleb128 0x1
	.byte	0x4
	.4byte	.LCFI7-.LCFI6
	.byte	0xe
	.uleb128 0x80
	.align	2
.LEFDE8:
.LSFDE10:
	.4byte	.LEFDE10-.LASFDE10
.LASFDE10:
	.4byte	.Lframe0
	.4byte	.LFB50
	.4byte	.LFE50-.LFB50
	.byte	0x4
	.4byte	.LCFI8-.LFB50
	.byte	0xe
	.uleb128 0xc
	.byte	0x84
	.uleb128 0x3
	.byte	0x85
	.uleb128 0x2
	.byte	0x8e
	.uleb128 0x1
	.byte	0x4
	.4byte	.LCFI9-.LCFI8
	.byte	0xe
	.uleb128 0x38
	.align	2
.LEFDE10:
	.text
.Letext0:
	.file 3 "/usr/share/crossworks_for_arm_4.8/include/stdint.h"
	.file 4 "/home/mymy49/.rowley_associates_limited/CrossWorks for ARM/v4/packages/targets/SAM_L/CMSIS/Device/SAML21/Include/saml21j18b.h"
	.file 5 "/home/mymy49/.rowley_associates_limited/CrossWorks for ARM/v4/packages/targets/SAM_L/CMSIS/Device/SAML21/Include/component/port.h"
	.file 6 "/home/mymy49/library/yss/yss/inc/yss/Mutex.h"
	.file 7 "/home/mymy49/library/yss/yss/inc/drv/Drv.h"
	.file 8 "/home/mymy49/library/yss/yss/inc/drv/gpio/drv_microchip_gpio_type_A.h"
	.file 9 "/home/mymy49/library/yss/yss/inc/drv/i2c/drv_i2c_not_support.h"
	.file 10 "/home/mymy49/library/yss/yss/inc/drv/adc/drv_adc_not_support.h"
	.file 11 "/home/mymy49/library/yss/yss/inc/sac/Comm.h"
	.file 12 "/home/mymy49/library/yss/yss/inc/drv/clock/drv_microchip_clock_type_A_ec.h"
	.file 13 "/home/mymy49/library/yss/yss/inc/drv/gpio/drv_microchip_gpio_type_A_define.h"
	.file 14 "/home/mymy49/library/yss/yss/inc/drv/uart/drv_microchip_uart_type_A_define.h"
	.file 15 "/home/mymy49/library/yss/yss/inc/drv/exti/drv_exti_not_support.h"
	.file 16 "/home/mymy49/library/yss/yss/inc/drv/spi/drv_microchip_spi_type_A_define.h"
	.file 17 "/home/mymy49/library/yss/yss/inc/drv/spi/drv_spi_common.h"
	.file 18 "/home/mymy49/library/yss/yss/inc/drv/wdog/wdog_define.h"
	.file 19 "/home/mymy49/library/yss/yss/inc/drv/drv_Gpio.h"
	.file 20 "/home/mymy49/library/yss/yss/inc/drv/rtc/drv_rtc_not_support.h"
	.file 21 "/home/mymy49/library/yss/yss/inc/drv/ltdc/drv_ltdc_config.h"
	.file 22 "/home/mymy49/library/yss/yss/inc/drv/usbd/drv_usbd_config.h"
	.file 23 "/home/mymy49/library/yss/yss/inc/drv/quadspi/drv_quadspi_not_support.h"
	.file 24 "/home/mymy49/library/yss/yss/inc/drv/sdram/drv_sdram_config.h"
	.file 25 "/home/mymy49/library/yss/yss/inc/mod/eeprom/CAT24C256.h"